
ParcialFinalSD.elf:     file format elf32-littlearm

Sections:
Idx Name          Size      VMA       LMA       File off  Algn
  0 .isr_vector   000000c0  08000000  08000000  00001000  2**0
                  CONTENTS, ALLOC, LOAD, READONLY, DATA
  1 .text         000013fc  080000c0  080000c0  000010c0  2**2
                  CONTENTS, ALLOC, LOAD, READONLY, CODE
  2 .rodata       00000240  080014bc  080014bc  000024bc  2**2
                  CONTENTS, ALLOC, LOAD, READONLY, DATA
  3 .ARM.extab    00000000  080016fc  080016fc  00002704  2**0
                  CONTENTS
  4 .ARM          00000000  080016fc  080016fc  00002704  2**0
                  CONTENTS
  5 .preinit_array 00000000  080016fc  08001704  00002704  2**0
                  CONTENTS, ALLOC, LOAD, DATA
  6 .init_array   00000004  080016fc  080016fc  000026fc  2**2
                  CONTENTS, ALLOC, LOAD, READONLY, DATA
  7 .fini_array   00000004  08001700  08001700  00002700  2**2
                  CONTENTS, ALLOC, LOAD, READONLY, DATA
  8 .data         00000000  20000000  20000000  00002704  2**0
                  CONTENTS, ALLOC, LOAD, DATA
  9 .bss          0000003c  20000000  08001704  00003000  2**2
                  ALLOC
 10 ._user_heap_stack 00000604  2000003c  08001704  0000303c  2**0
                  ALLOC
 11 .ARM.attributes 00000028  00000000  00000000  00002704  2**0
                  CONTENTS, READONLY
 12 .debug_info   00000cc7  00000000  00000000  0000272c  2**0
                  CONTENTS, READONLY, DEBUGGING, OCTETS
 13 .debug_abbrev 0000031d  00000000  00000000  000033f3  2**0
                  CONTENTS, READONLY, DEBUGGING, OCTETS
 14 .debug_aranges 000000f0  00000000  00000000  00003710  2**3
                  CONTENTS, READONLY, DEBUGGING, OCTETS
 15 .debug_rnglists 000000b4  00000000  00000000  00003800  2**0
                  CONTENTS, READONLY, DEBUGGING, OCTETS
 16 .debug_macro  0000b437  00000000  00000000  000038b4  2**0
                  CONTENTS, READONLY, DEBUGGING, OCTETS
 17 .debug_line   000011d1  00000000  00000000  0000eceb  2**0
                  CONTENTS, READONLY, DEBUGGING, OCTETS
 18 .debug_str    0003d21d  00000000  00000000  0000febc  2**0
                  CONTENTS, READONLY, DEBUGGING, OCTETS
 19 .comment      00000043  00000000  00000000  0004d0d9  2**0
                  CONTENTS, READONLY
 20 .debug_frame  000002d4  00000000  00000000  0004d11c  2**2
                  CONTENTS, READONLY, DEBUGGING, OCTETS
 21 .debug_line_str 00000065  00000000  00000000  0004d3f0  2**0
                  CONTENTS, READONLY, DEBUGGING, OCTETS

Disassembly of section .text:

080000c0 <__do_global_dtors_aux>:
 80000c0:	b510      	push	{r4, lr}
 80000c2:	4c06      	ldr	r4, [pc, #24]	@ (80000dc <__do_global_dtors_aux+0x1c>)
 80000c4:	7823      	ldrb	r3, [r4, #0]
 80000c6:	2b00      	cmp	r3, #0
 80000c8:	d107      	bne.n	80000da <__do_global_dtors_aux+0x1a>
 80000ca:	4b05      	ldr	r3, [pc, #20]	@ (80000e0 <__do_global_dtors_aux+0x20>)
 80000cc:	2b00      	cmp	r3, #0
 80000ce:	d002      	beq.n	80000d6 <__do_global_dtors_aux+0x16>
 80000d0:	4804      	ldr	r0, [pc, #16]	@ (80000e4 <__do_global_dtors_aux+0x24>)
 80000d2:	e000      	b.n	80000d6 <__do_global_dtors_aux+0x16>
 80000d4:	bf00      	nop
 80000d6:	2301      	movs	r3, #1
 80000d8:	7023      	strb	r3, [r4, #0]
 80000da:	bd10      	pop	{r4, pc}
 80000dc:	20000000 	.word	0x20000000
 80000e0:	00000000 	.word	0x00000000
 80000e4:	080014a4 	.word	0x080014a4

080000e8 <frame_dummy>:
 80000e8:	4b04      	ldr	r3, [pc, #16]	@ (80000fc <frame_dummy+0x14>)
 80000ea:	b510      	push	{r4, lr}
 80000ec:	2b00      	cmp	r3, #0
 80000ee:	d003      	beq.n	80000f8 <frame_dummy+0x10>
 80000f0:	4903      	ldr	r1, [pc, #12]	@ (8000100 <frame_dummy+0x18>)
 80000f2:	4804      	ldr	r0, [pc, #16]	@ (8000104 <frame_dummy+0x1c>)
 80000f4:	e000      	b.n	80000f8 <frame_dummy+0x10>
 80000f6:	bf00      	nop
 80000f8:	bd10      	pop	{r4, pc}
 80000fa:	46c0      	nop			@ (mov r8, r8)
 80000fc:	00000000 	.word	0x00000000
 8000100:	20000004 	.word	0x20000004
 8000104:	080014a4 	.word	0x080014a4

08000108 <__NVIC_EnableIRQ>:
  \details Enables a device specific interrupt in the NVIC interrupt controller.
  \param [in]      IRQn  Device specific interrupt number.
  \note    IRQn must not be negative.
 */
__STATIC_INLINE void __NVIC_EnableIRQ(IRQn_Type IRQn)
{
 8000108:	b580      	push	{r7, lr}
 800010a:	b082      	sub	sp, #8
 800010c:	af00      	add	r7, sp, #0
 800010e:	0002      	movs	r2, r0
 8000110:	1dfb      	adds	r3, r7, #7
 8000112:	701a      	strb	r2, [r3, #0]
  if ((int32_t)(IRQn) >= 0)
 8000114:	1dfb      	adds	r3, r7, #7
 8000116:	781b      	ldrb	r3, [r3, #0]
 8000118:	2b7f      	cmp	r3, #127	@ 0x7f
 800011a:	d809      	bhi.n	8000130 <__NVIC_EnableIRQ+0x28>
  {
    __COMPILER_BARRIER();
    NVIC->ISER[0U] = (uint32_t)(1UL << (((uint32_t)IRQn) & 0x1FUL));
 800011c:	1dfb      	adds	r3, r7, #7
 800011e:	781b      	ldrb	r3, [r3, #0]
 8000120:	001a      	movs	r2, r3
 8000122:	231f      	movs	r3, #31
 8000124:	401a      	ands	r2, r3
 8000126:	4b04      	ldr	r3, [pc, #16]	@ (8000138 <__NVIC_EnableIRQ+0x30>)
 8000128:	2101      	movs	r1, #1
 800012a:	4091      	lsls	r1, r2
 800012c:	000a      	movs	r2, r1
 800012e:	601a      	str	r2, [r3, #0]
    __COMPILER_BARRIER();
  }
}
 8000130:	46c0      	nop			@ (mov r8, r8)
 8000132:	46bd      	mov	sp, r7
 8000134:	b002      	add	sp, #8
 8000136:	bd80      	pop	{r7, pc}
 8000138:	e000e100 	.word	0xe000e100

0800013c <__NVIC_SetPriority>:
  \param [in]      IRQn  Interrupt number.
  \param [in]  priority  Priority to set.
  \note    The priority cannot be set for every processor exception.
 */
__STATIC_INLINE void __NVIC_SetPriority(IRQn_Type IRQn, uint32_t priority)
{
 800013c:	b590      	push	{r4, r7, lr}
 800013e:	b083      	sub	sp, #12
 8000140:	af00      	add	r7, sp, #0
 8000142:	0002      	movs	r2, r0
 8000144:	6039      	str	r1, [r7, #0]
 8000146:	1dfb      	adds	r3, r7, #7
 8000148:	701a      	strb	r2, [r3, #0]
  if ((int32_t)(IRQn) >= 0)
 800014a:	1dfb      	adds	r3, r7, #7
 800014c:	781b      	ldrb	r3, [r3, #0]
 800014e:	2b7f      	cmp	r3, #127	@ 0x7f
 8000150:	d828      	bhi.n	80001a4 <__NVIC_SetPriority+0x68>
  {
    NVIC->IP[_IP_IDX(IRQn)]  = ((uint32_t)(NVIC->IP[_IP_IDX(IRQn)]  & ~(0xFFUL << _BIT_SHIFT(IRQn))) |
 8000152:	4a2f      	ldr	r2, [pc, #188]	@ (8000210 <__NVIC_SetPriority+0xd4>)
 8000154:	1dfb      	adds	r3, r7, #7
 8000156:	781b      	ldrb	r3, [r3, #0]
 8000158:	b25b      	sxtb	r3, r3
 800015a:	089b      	lsrs	r3, r3, #2
 800015c:	33c0      	adds	r3, #192	@ 0xc0
 800015e:	009b      	lsls	r3, r3, #2
 8000160:	589b      	ldr	r3, [r3, r2]
 8000162:	1dfa      	adds	r2, r7, #7
 8000164:	7812      	ldrb	r2, [r2, #0]
 8000166:	0011      	movs	r1, r2
 8000168:	2203      	movs	r2, #3
 800016a:	400a      	ands	r2, r1
 800016c:	00d2      	lsls	r2, r2, #3
 800016e:	21ff      	movs	r1, #255	@ 0xff
 8000170:	4091      	lsls	r1, r2
 8000172:	000a      	movs	r2, r1
 8000174:	43d2      	mvns	r2, r2
 8000176:	401a      	ands	r2, r3
 8000178:	0011      	movs	r1, r2
       (((priority << (8U - __NVIC_PRIO_BITS)) & (uint32_t)0xFFUL) << _BIT_SHIFT(IRQn)));
 800017a:	683b      	ldr	r3, [r7, #0]
 800017c:	019b      	lsls	r3, r3, #6
 800017e:	22ff      	movs	r2, #255	@ 0xff
 8000180:	401a      	ands	r2, r3
 8000182:	1dfb      	adds	r3, r7, #7
 8000184:	781b      	ldrb	r3, [r3, #0]
 8000186:	0018      	movs	r0, r3
 8000188:	2303      	movs	r3, #3
 800018a:	4003      	ands	r3, r0
 800018c:	00db      	lsls	r3, r3, #3
 800018e:	409a      	lsls	r2, r3
    NVIC->IP[_IP_IDX(IRQn)]  = ((uint32_t)(NVIC->IP[_IP_IDX(IRQn)]  & ~(0xFFUL << _BIT_SHIFT(IRQn))) |
 8000190:	481f      	ldr	r0, [pc, #124]	@ (8000210 <__NVIC_SetPriority+0xd4>)
 8000192:	1dfb      	adds	r3, r7, #7
 8000194:	781b      	ldrb	r3, [r3, #0]
 8000196:	b25b      	sxtb	r3, r3
 8000198:	089b      	lsrs	r3, r3, #2
 800019a:	430a      	orrs	r2, r1
 800019c:	33c0      	adds	r3, #192	@ 0xc0
 800019e:	009b      	lsls	r3, r3, #2
 80001a0:	501a      	str	r2, [r3, r0]
  else
  {
    SCB->SHP[_SHP_IDX(IRQn)] = ((uint32_t)(SCB->SHP[_SHP_IDX(IRQn)] & ~(0xFFUL << _BIT_SHIFT(IRQn))) |
       (((priority << (8U - __NVIC_PRIO_BITS)) & (uint32_t)0xFFUL) << _BIT_SHIFT(IRQn)));
  }
}
 80001a2:	e031      	b.n	8000208 <__NVIC_SetPriority+0xcc>
    SCB->SHP[_SHP_IDX(IRQn)] = ((uint32_t)(SCB->SHP[_SHP_IDX(IRQn)] & ~(0xFFUL << _BIT_SHIFT(IRQn))) |
 80001a4:	4a1b      	ldr	r2, [pc, #108]	@ (8000214 <__NVIC_SetPriority+0xd8>)
 80001a6:	1dfb      	adds	r3, r7, #7
 80001a8:	781b      	ldrb	r3, [r3, #0]
 80001aa:	0019      	movs	r1, r3
 80001ac:	230f      	movs	r3, #15
 80001ae:	400b      	ands	r3, r1
 80001b0:	3b08      	subs	r3, #8
 80001b2:	089b      	lsrs	r3, r3, #2
 80001b4:	3306      	adds	r3, #6
 80001b6:	009b      	lsls	r3, r3, #2
 80001b8:	18d3      	adds	r3, r2, r3
 80001ba:	3304      	adds	r3, #4
 80001bc:	681b      	ldr	r3, [r3, #0]
 80001be:	1dfa      	adds	r2, r7, #7
 80001c0:	7812      	ldrb	r2, [r2, #0]
 80001c2:	0011      	movs	r1, r2
 80001c4:	2203      	movs	r2, #3
 80001c6:	400a      	ands	r2, r1
 80001c8:	00d2      	lsls	r2, r2, #3
 80001ca:	21ff      	movs	r1, #255	@ 0xff
 80001cc:	4091      	lsls	r1, r2
 80001ce:	000a      	movs	r2, r1
 80001d0:	43d2      	mvns	r2, r2
 80001d2:	401a      	ands	r2, r3
 80001d4:	0011      	movs	r1, r2
       (((priority << (8U - __NVIC_PRIO_BITS)) & (uint32_t)0xFFUL) << _BIT_SHIFT(IRQn)));
 80001d6:	683b      	ldr	r3, [r7, #0]
 80001d8:	019b      	lsls	r3, r3, #6
 80001da:	22ff      	movs	r2, #255	@ 0xff
 80001dc:	401a      	ands	r2, r3
 80001de:	1dfb      	adds	r3, r7, #7
 80001e0:	781b      	ldrb	r3, [r3, #0]
 80001e2:	0018      	movs	r0, r3
 80001e4:	2303      	movs	r3, #3
 80001e6:	4003      	ands	r3, r0
 80001e8:	00db      	lsls	r3, r3, #3
 80001ea:	409a      	lsls	r2, r3
    SCB->SHP[_SHP_IDX(IRQn)] = ((uint32_t)(SCB->SHP[_SHP_IDX(IRQn)] & ~(0xFFUL << _BIT_SHIFT(IRQn))) |
 80001ec:	4809      	ldr	r0, [pc, #36]	@ (8000214 <__NVIC_SetPriority+0xd8>)
 80001ee:	1dfb      	adds	r3, r7, #7
 80001f0:	781b      	ldrb	r3, [r3, #0]
 80001f2:	001c      	movs	r4, r3
 80001f4:	230f      	movs	r3, #15
 80001f6:	4023      	ands	r3, r4
 80001f8:	3b08      	subs	r3, #8
 80001fa:	089b      	lsrs	r3, r3, #2
 80001fc:	430a      	orrs	r2, r1
 80001fe:	3306      	adds	r3, #6
 8000200:	009b      	lsls	r3, r3, #2
 8000202:	18c3      	adds	r3, r0, r3
 8000204:	3304      	adds	r3, #4
 8000206:	601a      	str	r2, [r3, #0]
}
 8000208:	46c0      	nop			@ (mov r8, r8)
 800020a:	46bd      	mov	sp, r7
 800020c:	b003      	add	sp, #12
 800020e:	bd90      	pop	{r4, r7, pc}
 8000210:	e000e100 	.word	0xe000e100
 8000214:	e000ed00 	.word	0xe000ed00

08000218 <main>:

//LED temporal
#define LED_PIN (1<<5)          /* PA5 - LED */
volatile uint8_t led_ticks = 0;   /* 1 tick = 2 ms */

int main(void) {
 8000218:	b580      	push	{r7, lr}
 800021a:	af00      	add	r7, sp, #0
	//1. Habilitar HSI 16 MHz como SYSCLK
    RCC->CR |= (1<<0);   // HSI ON
 800021c:	4b0e      	ldr	r3, [pc, #56]	@ (8000258 <main+0x40>)
 800021e:	681a      	ldr	r2, [r3, #0]
 8000220:	4b0d      	ldr	r3, [pc, #52]	@ (8000258 <main+0x40>)
 8000222:	2101      	movs	r1, #1
 8000224:	430a      	orrs	r2, r1
 8000226:	601a      	str	r2, [r3, #0]
    RCC->CFGR |= (1<<0); // HSI16 como SYSCLK
 8000228:	4b0b      	ldr	r3, [pc, #44]	@ (8000258 <main+0x40>)
 800022a:	68da      	ldr	r2, [r3, #12]
 800022c:	4b0a      	ldr	r3, [pc, #40]	@ (8000258 <main+0x40>)
 800022e:	2101      	movs	r1, #1
 8000230:	430a      	orrs	r2, r1
 8000232:	60da      	str	r2, [r3, #12]

    //2. Inicializar  puertos y timers
    PORTS_init();   //Configuracion de todos los puertos
 8000234:	f000 f896 	bl	8000364 <PORTS_init>
    TIM2config();   //Configuracion del TIM2 a  200 ms
 8000238:	f000 f9b6 	bl	80005a8 <TIM2config>
    TIM21config();  //Configuracion del TIM21 a 2 ms
 800023c:	f000 fc38 	bl	8000ab0 <TIM21config>

    //3. Inicializar LCD
    LCD_INIT();
 8000240:	f000 f940 	bl	80004c4 <LCD_INIT>

    // 4. Inicializar USART1 y USART2
	USART1_Init();
 8000244:	f000 fea2 	bl	8000f8c <USART1_Init>
	USART2Init();
 8000248:	f000 fde6 	bl	8000e18 <USART2Init>

	//Configuración inicial del módulo
	configureGSMForSMS();
 800024c:	f001 f8b8 	bl	80013c0 <configureGSMForSMS>
  \details Enables IRQ interrupts by clearing special-purpose register PRIMASK.
           Can only be executed in Privileged modes.
 */
__STATIC_FORCEINLINE void __enable_irq(void)
{
  __ASM volatile ("cpsie i" : : : "memory");
 8000250:	b662      	cpsie	i
}
 8000252:	46c0      	nop			@ (mov r8, r8)

    __enable_irq();

    while (1);
 8000254:	46c0      	nop			@ (mov r8, r8)
 8000256:	e7fd      	b.n	8000254 <main+0x3c>
 8000258:	40021000 	.word	0x40021000

0800025c <LCD_command>:

}

//Envia comando al LCD
void LCD_command(unsigned char command) {
 800025c:	b580      	push	{r7, lr}
 800025e:	b084      	sub	sp, #16
 8000260:	af00      	add	r7, sp, #0
 8000262:	0002      	movs	r2, r0
 8000264:	1dfb      	adds	r3, r7, #7
 8000266:	701a      	strb	r2, [r3, #0]
    GPIOC->BSRR = (RS | RW) << 16; // RS=0, RW=0
 8000268:	4b1a      	ldr	r3, [pc, #104]	@ (80002d4 <LCD_command+0x78>)
 800026a:	22c0      	movs	r2, #192	@ 0xc0
 800026c:	0292      	lsls	r2, r2, #10
 800026e:	619a      	str	r2, [r3, #24]
    GPIOC->ODR &= ~(0xFF0);
 8000270:	4b18      	ldr	r3, [pc, #96]	@ (80002d4 <LCD_command+0x78>)
 8000272:	695a      	ldr	r2, [r3, #20]
 8000274:	4b17      	ldr	r3, [pc, #92]	@ (80002d4 <LCD_command+0x78>)
 8000276:	4918      	ldr	r1, [pc, #96]	@ (80002d8 <LCD_command+0x7c>)
 8000278:	400a      	ands	r2, r1
 800027a:	615a      	str	r2, [r3, #20]
    GPIOC->ODR |= (command << 4);
 800027c:	4b15      	ldr	r3, [pc, #84]	@ (80002d4 <LCD_command+0x78>)
 800027e:	6959      	ldr	r1, [r3, #20]
 8000280:	1dfb      	adds	r3, r7, #7
 8000282:	781b      	ldrb	r3, [r3, #0]
 8000284:	011a      	lsls	r2, r3, #4
 8000286:	4b13      	ldr	r3, [pc, #76]	@ (80002d4 <LCD_command+0x78>)
 8000288:	430a      	orrs	r2, r1
 800028a:	615a      	str	r2, [r3, #20]
    GPIOC->BSRR = EN;
 800028c:	4b11      	ldr	r3, [pc, #68]	@ (80002d4 <LCD_command+0x78>)
 800028e:	2208      	movs	r2, #8
 8000290:	619a      	str	r2, [r3, #24]
    for (volatile int i = 0; i < 800; i++) __NOP();  // Pausa de 1ms
 8000292:	2300      	movs	r3, #0
 8000294:	60fb      	str	r3, [r7, #12]
 8000296:	e003      	b.n	80002a0 <LCD_command+0x44>
 8000298:	46c0      	nop			@ (mov r8, r8)
 800029a:	68fb      	ldr	r3, [r7, #12]
 800029c:	3301      	adds	r3, #1
 800029e:	60fb      	str	r3, [r7, #12]
 80002a0:	68fa      	ldr	r2, [r7, #12]
 80002a2:	23c8      	movs	r3, #200	@ 0xc8
 80002a4:	009b      	lsls	r3, r3, #2
 80002a6:	429a      	cmp	r2, r3
 80002a8:	dbf6      	blt.n	8000298 <LCD_command+0x3c>
    GPIOC->BSRR = EN << 16;
 80002aa:	4b0a      	ldr	r3, [pc, #40]	@ (80002d4 <LCD_command+0x78>)
 80002ac:	2280      	movs	r2, #128	@ 0x80
 80002ae:	0312      	lsls	r2, r2, #12
 80002b0:	619a      	str	r2, [r3, #24]
    for (volatile int i = 0; i < 1600; i++) __NOP(); // Pausa de 2ms
 80002b2:	2300      	movs	r3, #0
 80002b4:	60bb      	str	r3, [r7, #8]
 80002b6:	e003      	b.n	80002c0 <LCD_command+0x64>
 80002b8:	46c0      	nop			@ (mov r8, r8)
 80002ba:	68bb      	ldr	r3, [r7, #8]
 80002bc:	3301      	adds	r3, #1
 80002be:	60bb      	str	r3, [r7, #8]
 80002c0:	68ba      	ldr	r2, [r7, #8]
 80002c2:	23c8      	movs	r3, #200	@ 0xc8
 80002c4:	00db      	lsls	r3, r3, #3
 80002c6:	429a      	cmp	r2, r3
 80002c8:	dbf6      	blt.n	80002b8 <LCD_command+0x5c>
}
 80002ca:	46c0      	nop			@ (mov r8, r8)
 80002cc:	46c0      	nop			@ (mov r8, r8)
 80002ce:	46bd      	mov	sp, r7
 80002d0:	b004      	add	sp, #16
 80002d2:	bd80      	pop	{r7, pc}
 80002d4:	50000800 	.word	0x50000800
 80002d8:	fffff00f 	.word	0xfffff00f

080002dc <LCD_data>:

void LCD_data(char data) {
 80002dc:	b580      	push	{r7, lr}
 80002de:	b084      	sub	sp, #16
 80002e0:	af00      	add	r7, sp, #0
 80002e2:	0002      	movs	r2, r0
 80002e4:	1dfb      	adds	r3, r7, #7
 80002e6:	701a      	strb	r2, [r3, #0]
    GPIOC->BSRR = RS;      // RS=1
 80002e8:	4b1c      	ldr	r3, [pc, #112]	@ (800035c <LCD_data+0x80>)
 80002ea:	2201      	movs	r2, #1
 80002ec:	619a      	str	r2, [r3, #24]
    GPIOC->BSRR = RW << 16; // RW=0
 80002ee:	4b1b      	ldr	r3, [pc, #108]	@ (800035c <LCD_data+0x80>)
 80002f0:	2280      	movs	r2, #128	@ 0x80
 80002f2:	0292      	lsls	r2, r2, #10
 80002f4:	619a      	str	r2, [r3, #24]
    GPIOC->ODR &= ~(0xFF0);
 80002f6:	4b19      	ldr	r3, [pc, #100]	@ (800035c <LCD_data+0x80>)
 80002f8:	695a      	ldr	r2, [r3, #20]
 80002fa:	4b18      	ldr	r3, [pc, #96]	@ (800035c <LCD_data+0x80>)
 80002fc:	4918      	ldr	r1, [pc, #96]	@ (8000360 <LCD_data+0x84>)
 80002fe:	400a      	ands	r2, r1
 8000300:	615a      	str	r2, [r3, #20]
    GPIOC->ODR |= (data << 4);
 8000302:	4b16      	ldr	r3, [pc, #88]	@ (800035c <LCD_data+0x80>)
 8000304:	6959      	ldr	r1, [r3, #20]
 8000306:	1dfb      	adds	r3, r7, #7
 8000308:	781b      	ldrb	r3, [r3, #0]
 800030a:	011a      	lsls	r2, r3, #4
 800030c:	4b13      	ldr	r3, [pc, #76]	@ (800035c <LCD_data+0x80>)
 800030e:	430a      	orrs	r2, r1
 8000310:	615a      	str	r2, [r3, #20]
    GPIOC->BSRR = EN;
 8000312:	4b12      	ldr	r3, [pc, #72]	@ (800035c <LCD_data+0x80>)
 8000314:	2208      	movs	r2, #8
 8000316:	619a      	str	r2, [r3, #24]
    for (volatile int i = 0; i < 800; i++) __NOP();  // Pausa de 1ms
 8000318:	2300      	movs	r3, #0
 800031a:	60fb      	str	r3, [r7, #12]
 800031c:	e003      	b.n	8000326 <LCD_data+0x4a>
 800031e:	46c0      	nop			@ (mov r8, r8)
 8000320:	68fb      	ldr	r3, [r7, #12]
 8000322:	3301      	adds	r3, #1
 8000324:	60fb      	str	r3, [r7, #12]
 8000326:	68fa      	ldr	r2, [r7, #12]
 8000328:	23c8      	movs	r3, #200	@ 0xc8
 800032a:	009b      	lsls	r3, r3, #2
 800032c:	429a      	cmp	r2, r3
 800032e:	dbf6      	blt.n	800031e <LCD_data+0x42>
    GPIOC->BSRR = EN << 16;
 8000330:	4b0a      	ldr	r3, [pc, #40]	@ (800035c <LCD_data+0x80>)
 8000332:	2280      	movs	r2, #128	@ 0x80
 8000334:	0312      	lsls	r2, r2, #12
 8000336:	619a      	str	r2, [r3, #24]
    for (volatile int i = 0; i < 1600; i++) __NOP(); // Pausa de 2ms
 8000338:	2300      	movs	r3, #0
 800033a:	60bb      	str	r3, [r7, #8]
 800033c:	e003      	b.n	8000346 <LCD_data+0x6a>
 800033e:	46c0      	nop			@ (mov r8, r8)
 8000340:	68bb      	ldr	r3, [r7, #8]
 8000342:	3301      	adds	r3, #1
 8000344:	60bb      	str	r3, [r7, #8]
 8000346:	68ba      	ldr	r2, [r7, #8]
 8000348:	23c8      	movs	r3, #200	@ 0xc8
 800034a:	00db      	lsls	r3, r3, #3
 800034c:	429a      	cmp	r2, r3
 800034e:	dbf6      	blt.n	800033e <LCD_data+0x62>
}
 8000350:	46c0      	nop			@ (mov r8, r8)
 8000352:	46c0      	nop			@ (mov r8, r8)
 8000354:	46bd      	mov	sp, r7
 8000356:	b004      	add	sp, #16
 8000358:	bd80      	pop	{r7, pc}
 800035a:	46c0      	nop			@ (mov r8, r8)
 800035c:	50000800 	.word	0x50000800
 8000360:	fffff00f 	.word	0xfffff00f

08000364 <PORTS_init>:

void PORTS_init(void) {
 8000364:	b580      	push	{r7, lr}
 8000366:	b082      	sub	sp, #8
 8000368:	af00      	add	r7, sp, #0
    RCC->IOPENR |= (1<<2); // Habilitar GPIOC y los pines para el LCD
 800036a:	4b4a      	ldr	r3, [pc, #296]	@ (8000494 <PORTS_init+0x130>)
 800036c:	6ada      	ldr	r2, [r3, #44]	@ 0x2c
 800036e:	4b49      	ldr	r3, [pc, #292]	@ (8000494 <PORTS_init+0x130>)
 8000370:	2104      	movs	r1, #4
 8000372:	430a      	orrs	r2, r1
 8000374:	62da      	str	r2, [r3, #44]	@ 0x2c
    for (int i = 0; i <= 11; i++) {
 8000376:	2300      	movs	r3, #0
 8000378:	607b      	str	r3, [r7, #4]
 800037a:	e019      	b.n	80003b0 <PORTS_init+0x4c>
        GPIOC->MODER &= ~(0x3 << (2*i));
 800037c:	4b46      	ldr	r3, [pc, #280]	@ (8000498 <PORTS_init+0x134>)
 800037e:	681a      	ldr	r2, [r3, #0]
 8000380:	687b      	ldr	r3, [r7, #4]
 8000382:	005b      	lsls	r3, r3, #1
 8000384:	2103      	movs	r1, #3
 8000386:	4099      	lsls	r1, r3
 8000388:	000b      	movs	r3, r1
 800038a:	43db      	mvns	r3, r3
 800038c:	0019      	movs	r1, r3
 800038e:	4b42      	ldr	r3, [pc, #264]	@ (8000498 <PORTS_init+0x134>)
 8000390:	400a      	ands	r2, r1
 8000392:	601a      	str	r2, [r3, #0]
        GPIOC->MODER |=  (0x1 << (2*i));
 8000394:	4b40      	ldr	r3, [pc, #256]	@ (8000498 <PORTS_init+0x134>)
 8000396:	681a      	ldr	r2, [r3, #0]
 8000398:	687b      	ldr	r3, [r7, #4]
 800039a:	005b      	lsls	r3, r3, #1
 800039c:	2101      	movs	r1, #1
 800039e:	4099      	lsls	r1, r3
 80003a0:	000b      	movs	r3, r1
 80003a2:	0019      	movs	r1, r3
 80003a4:	4b3c      	ldr	r3, [pc, #240]	@ (8000498 <PORTS_init+0x134>)
 80003a6:	430a      	orrs	r2, r1
 80003a8:	601a      	str	r2, [r3, #0]
    for (int i = 0; i <= 11; i++) {
 80003aa:	687b      	ldr	r3, [r7, #4]
 80003ac:	3301      	adds	r3, #1
 80003ae:	607b      	str	r3, [r7, #4]
 80003b0:	687b      	ldr	r3, [r7, #4]
 80003b2:	2b0b      	cmp	r3, #11
 80003b4:	dde2      	ble.n	800037c <PORTS_init+0x18>
    }

    RCC->IOPENR |= (1<<0); //Enable clock GPIOA
 80003b6:	4b37      	ldr	r3, [pc, #220]	@ (8000494 <PORTS_init+0x130>)
 80003b8:	6ada      	ldr	r2, [r3, #44]	@ 0x2c
 80003ba:	4b36      	ldr	r3, [pc, #216]	@ (8000494 <PORTS_init+0x130>)
 80003bc:	2101      	movs	r1, #1
 80003be:	430a      	orrs	r2, r1
 80003c0:	62da      	str	r2, [r3, #44]	@ 0x2c
    RCC->IOPENR |= (1<<1); //Enable clock GPIOB
 80003c2:	4b34      	ldr	r3, [pc, #208]	@ (8000494 <PORTS_init+0x130>)
 80003c4:	6ada      	ldr	r2, [r3, #44]	@ 0x2c
 80003c6:	4b33      	ldr	r3, [pc, #204]	@ (8000494 <PORTS_init+0x130>)
 80003c8:	2102      	movs	r1, #2
 80003ca:	430a      	orrs	r2, r1
 80003cc:	62da      	str	r2, [r3, #44]	@ 0x2c

    GPIOA->MODER &= ~(1<<11); //Config PA5 como output Salida  0
 80003ce:	23a0      	movs	r3, #160	@ 0xa0
 80003d0:	05db      	lsls	r3, r3, #23
 80003d2:	681a      	ldr	r2, [r3, #0]
 80003d4:	23a0      	movs	r3, #160	@ 0xa0
 80003d6:	05db      	lsls	r3, r3, #23
 80003d8:	4930      	ldr	r1, [pc, #192]	@ (800049c <PORTS_init+0x138>)
 80003da:	400a      	ands	r2, r1
 80003dc:	601a      	str	r2, [r3, #0]
    GPIOA->MODER &= ~(1 << 25);   // Configurar PA12 como salida
 80003de:	23a0      	movs	r3, #160	@ 0xa0
 80003e0:	05db      	lsls	r3, r3, #23
 80003e2:	681a      	ldr	r2, [r3, #0]
 80003e4:	23a0      	movs	r3, #160	@ 0xa0
 80003e6:	05db      	lsls	r3, r3, #23
 80003e8:	492d      	ldr	r1, [pc, #180]	@ (80004a0 <PORTS_init+0x13c>)
 80003ea:	400a      	ands	r2, r1
 80003ec:	601a      	str	r2, [r3, #0]


    GPIOB->MODER &= ~(1<<1); //Config PB0 como output Salida  0
 80003ee:	4b2d      	ldr	r3, [pc, #180]	@ (80004a4 <PORTS_init+0x140>)
 80003f0:	681a      	ldr	r2, [r3, #0]
 80003f2:	4b2c      	ldr	r3, [pc, #176]	@ (80004a4 <PORTS_init+0x140>)
 80003f4:	2102      	movs	r1, #2
 80003f6:	438a      	bics	r2, r1
 80003f8:	601a      	str	r2, [r3, #0]
	GPIOB->MODER &= ~(1<<3); //Config PB1 como output Salida  1
 80003fa:	4b2a      	ldr	r3, [pc, #168]	@ (80004a4 <PORTS_init+0x140>)
 80003fc:	681a      	ldr	r2, [r3, #0]
 80003fe:	4b29      	ldr	r3, [pc, #164]	@ (80004a4 <PORTS_init+0x140>)
 8000400:	2108      	movs	r1, #8
 8000402:	438a      	bics	r2, r1
 8000404:	601a      	str	r2, [r3, #0]
	GPIOB->MODER &= ~(1<<5); //Config PB2 como output Salida  2
 8000406:	4b27      	ldr	r3, [pc, #156]	@ (80004a4 <PORTS_init+0x140>)
 8000408:	681a      	ldr	r2, [r3, #0]
 800040a:	4b26      	ldr	r3, [pc, #152]	@ (80004a4 <PORTS_init+0x140>)
 800040c:	2120      	movs	r1, #32
 800040e:	438a      	bics	r2, r1
 8000410:	601a      	str	r2, [r3, #0]
	GPIOB->MODER &= ~(1<<7); //Config PB3 como output Salida  3
 8000412:	4b24      	ldr	r3, [pc, #144]	@ (80004a4 <PORTS_init+0x140>)
 8000414:	681a      	ldr	r2, [r3, #0]
 8000416:	4b23      	ldr	r3, [pc, #140]	@ (80004a4 <PORTS_init+0x140>)
 8000418:	2180      	movs	r1, #128	@ 0x80
 800041a:	438a      	bics	r2, r1
 800041c:	601a      	str	r2, [r3, #0]
	GPIOB->MODER &= ~(1<<9); //Config PB4 como output Salida  4
 800041e:	4b21      	ldr	r3, [pc, #132]	@ (80004a4 <PORTS_init+0x140>)
 8000420:	681a      	ldr	r2, [r3, #0]
 8000422:	4b20      	ldr	r3, [pc, #128]	@ (80004a4 <PORTS_init+0x140>)
 8000424:	4920      	ldr	r1, [pc, #128]	@ (80004a8 <PORTS_init+0x144>)
 8000426:	400a      	ands	r2, r1
 8000428:	601a      	str	r2, [r3, #0]
	GPIOB->MODER &= ~(1<<11); //Config PB5 como output Salida 5
 800042a:	4b1e      	ldr	r3, [pc, #120]	@ (80004a4 <PORTS_init+0x140>)
 800042c:	681a      	ldr	r2, [r3, #0]
 800042e:	4b1d      	ldr	r3, [pc, #116]	@ (80004a4 <PORTS_init+0x140>)
 8000430:	491a      	ldr	r1, [pc, #104]	@ (800049c <PORTS_init+0x138>)
 8000432:	400a      	ands	r2, r1
 8000434:	601a      	str	r2, [r3, #0]
	GPIOB->MODER &= ~(1<<13); //Config PB6 como output Salida 6
 8000436:	4b1b      	ldr	r3, [pc, #108]	@ (80004a4 <PORTS_init+0x140>)
 8000438:	681a      	ldr	r2, [r3, #0]
 800043a:	4b1a      	ldr	r3, [pc, #104]	@ (80004a4 <PORTS_init+0x140>)
 800043c:	491b      	ldr	r1, [pc, #108]	@ (80004ac <PORTS_init+0x148>)
 800043e:	400a      	ands	r2, r1
 8000440:	601a      	str	r2, [r3, #0]
	GPIOB->MODER &= ~(1<<15); //Config PB7 como output (Push 1)
 8000442:	4b18      	ldr	r3, [pc, #96]	@ (80004a4 <PORTS_init+0x140>)
 8000444:	681a      	ldr	r2, [r3, #0]
 8000446:	4b17      	ldr	r3, [pc, #92]	@ (80004a4 <PORTS_init+0x140>)
 8000448:	4919      	ldr	r1, [pc, #100]	@ (80004b0 <PORTS_init+0x14c>)
 800044a:	400a      	ands	r2, r1
 800044c:	601a      	str	r2, [r3, #0]
	GPIOB->MODER &= ~(1<<17); //Config PB8 como output (Push 2)
 800044e:	4b15      	ldr	r3, [pc, #84]	@ (80004a4 <PORTS_init+0x140>)
 8000450:	681a      	ldr	r2, [r3, #0]
 8000452:	4b14      	ldr	r3, [pc, #80]	@ (80004a4 <PORTS_init+0x140>)
 8000454:	4917      	ldr	r1, [pc, #92]	@ (80004b4 <PORTS_init+0x150>)
 8000456:	400a      	ands	r2, r1
 8000458:	601a      	str	r2, [r3, #0]
	GPIOB->MODER &= ~(1<<19); //Config PB9 como output (Push 3)
 800045a:	4b12      	ldr	r3, [pc, #72]	@ (80004a4 <PORTS_init+0x140>)
 800045c:	681a      	ldr	r2, [r3, #0]
 800045e:	4b11      	ldr	r3, [pc, #68]	@ (80004a4 <PORTS_init+0x140>)
 8000460:	4915      	ldr	r1, [pc, #84]	@ (80004b8 <PORTS_init+0x154>)
 8000462:	400a      	ands	r2, r1
 8000464:	601a      	str	r2, [r3, #0]
	GPIOB->MODER &= ~(1<<21); //Config PB10 como output (Push 4)
 8000466:	4b0f      	ldr	r3, [pc, #60]	@ (80004a4 <PORTS_init+0x140>)
 8000468:	681a      	ldr	r2, [r3, #0]
 800046a:	4b0e      	ldr	r3, [pc, #56]	@ (80004a4 <PORTS_init+0x140>)
 800046c:	4913      	ldr	r1, [pc, #76]	@ (80004bc <PORTS_init+0x158>)
 800046e:	400a      	ands	r2, r1
 8000470:	601a      	str	r2, [r3, #0]
	GPIOB->MODER &= ~(1<<23); //Config PB11 como output (Push 4)
 8000472:	4b0c      	ldr	r3, [pc, #48]	@ (80004a4 <PORTS_init+0x140>)
 8000474:	681a      	ldr	r2, [r3, #0]
 8000476:	4b0b      	ldr	r3, [pc, #44]	@ (80004a4 <PORTS_init+0x140>)
 8000478:	4911      	ldr	r1, [pc, #68]	@ (80004c0 <PORTS_init+0x15c>)
 800047a:	400a      	ands	r2, r1
 800047c:	601a      	str	r2, [r3, #0]
	GPIOB->MODER &= ~(1<<25); //Config PB12 como output (Push 4)
 800047e:	4b09      	ldr	r3, [pc, #36]	@ (80004a4 <PORTS_init+0x140>)
 8000480:	681a      	ldr	r2, [r3, #0]
 8000482:	4b08      	ldr	r3, [pc, #32]	@ (80004a4 <PORTS_init+0x140>)
 8000484:	4906      	ldr	r1, [pc, #24]	@ (80004a0 <PORTS_init+0x13c>)
 8000486:	400a      	ands	r2, r1
 8000488:	601a      	str	r2, [r3, #0]



	//GPIOC->MODER &= ~(1<<25); //Config PC12 como output (Push 4)

}
 800048a:	46c0      	nop			@ (mov r8, r8)
 800048c:	46bd      	mov	sp, r7
 800048e:	b002      	add	sp, #8
 8000490:	bd80      	pop	{r7, pc}
 8000492:	46c0      	nop			@ (mov r8, r8)
 8000494:	40021000 	.word	0x40021000
 8000498:	50000800 	.word	0x50000800
 800049c:	fffff7ff 	.word	0xfffff7ff
 80004a0:	fdffffff 	.word	0xfdffffff
 80004a4:	50000400 	.word	0x50000400
 80004a8:	fffffdff 	.word	0xfffffdff
 80004ac:	ffffdfff 	.word	0xffffdfff
 80004b0:	ffff7fff 	.word	0xffff7fff
 80004b4:	fffdffff 	.word	0xfffdffff
 80004b8:	fff7ffff 	.word	0xfff7ffff
 80004bc:	ffdfffff 	.word	0xffdfffff
 80004c0:	ff7fffff 	.word	0xff7fffff

080004c4 <LCD_INIT>:

void LCD_INIT(void) {
 80004c4:	b580      	push	{r7, lr}
 80004c6:	b088      	sub	sp, #32
 80004c8:	af00      	add	r7, sp, #0
	for (volatile int i = 0; i < 40000; i++) __NOP();  // Pausa de 50ms
 80004ca:	2300      	movs	r3, #0
 80004cc:	61fb      	str	r3, [r7, #28]
 80004ce:	e003      	b.n	80004d8 <LCD_INIT+0x14>
 80004d0:	46c0      	nop			@ (mov r8, r8)
 80004d2:	69fb      	ldr	r3, [r7, #28]
 80004d4:	3301      	adds	r3, #1
 80004d6:	61fb      	str	r3, [r7, #28]
 80004d8:	69fb      	ldr	r3, [r7, #28]
 80004da:	4a32      	ldr	r2, [pc, #200]	@ (80005a4 <LCD_INIT+0xe0>)
 80004dc:	4293      	cmp	r3, r2
 80004de:	ddf7      	ble.n	80004d0 <LCD_INIT+0xc>
    LCD_command(0x30);
 80004e0:	2030      	movs	r0, #48	@ 0x30
 80004e2:	f7ff febb 	bl	800025c <LCD_command>
    for (volatile int i = 0; i < 4000; i++) __NOP();  // Pausa de 5ms
 80004e6:	2300      	movs	r3, #0
 80004e8:	61bb      	str	r3, [r7, #24]
 80004ea:	e003      	b.n	80004f4 <LCD_INIT+0x30>
 80004ec:	46c0      	nop			@ (mov r8, r8)
 80004ee:	69bb      	ldr	r3, [r7, #24]
 80004f0:	3301      	adds	r3, #1
 80004f2:	61bb      	str	r3, [r7, #24]
 80004f4:	69ba      	ldr	r2, [r7, #24]
 80004f6:	23fa      	movs	r3, #250	@ 0xfa
 80004f8:	011b      	lsls	r3, r3, #4
 80004fa:	429a      	cmp	r2, r3
 80004fc:	dbf6      	blt.n	80004ec <LCD_INIT+0x28>
    LCD_command(0x30);
 80004fe:	2030      	movs	r0, #48	@ 0x30
 8000500:	f7ff feac 	bl	800025c <LCD_command>
    for (volatile int i = 0; i < 800; i++) __NOP();  // Pausa de 1ms
 8000504:	2300      	movs	r3, #0
 8000506:	617b      	str	r3, [r7, #20]
 8000508:	e003      	b.n	8000512 <LCD_INIT+0x4e>
 800050a:	46c0      	nop			@ (mov r8, r8)
 800050c:	697b      	ldr	r3, [r7, #20]
 800050e:	3301      	adds	r3, #1
 8000510:	617b      	str	r3, [r7, #20]
 8000512:	697a      	ldr	r2, [r7, #20]
 8000514:	23c8      	movs	r3, #200	@ 0xc8
 8000516:	009b      	lsls	r3, r3, #2
 8000518:	429a      	cmp	r2, r3
 800051a:	dbf6      	blt.n	800050a <LCD_INIT+0x46>
    LCD_command(0x30);
 800051c:	2030      	movs	r0, #48	@ 0x30
 800051e:	f7ff fe9d 	bl	800025c <LCD_command>
    for (volatile int i = 0; i < 800; i++) __NOP();  // Pausa de 1ms
 8000522:	2300      	movs	r3, #0
 8000524:	613b      	str	r3, [r7, #16]
 8000526:	e003      	b.n	8000530 <LCD_INIT+0x6c>
 8000528:	46c0      	nop			@ (mov r8, r8)
 800052a:	693b      	ldr	r3, [r7, #16]
 800052c:	3301      	adds	r3, #1
 800052e:	613b      	str	r3, [r7, #16]
 8000530:	693a      	ldr	r2, [r7, #16]
 8000532:	23c8      	movs	r3, #200	@ 0xc8
 8000534:	009b      	lsls	r3, r3, #2
 8000536:	429a      	cmp	r2, r3
 8000538:	dbf6      	blt.n	8000528 <LCD_INIT+0x64>
    LCD_command(0x38); // 8 bits, 2 líneas
 800053a:	2038      	movs	r0, #56	@ 0x38
 800053c:	f7ff fe8e 	bl	800025c <LCD_command>
    for (volatile int i = 0; i < 800; i++) __NOP();  // Pausa de 1ms
 8000540:	2300      	movs	r3, #0
 8000542:	60fb      	str	r3, [r7, #12]
 8000544:	e003      	b.n	800054e <LCD_INIT+0x8a>
 8000546:	46c0      	nop			@ (mov r8, r8)
 8000548:	68fb      	ldr	r3, [r7, #12]
 800054a:	3301      	adds	r3, #1
 800054c:	60fb      	str	r3, [r7, #12]
 800054e:	68fa      	ldr	r2, [r7, #12]
 8000550:	23c8      	movs	r3, #200	@ 0xc8
 8000552:	009b      	lsls	r3, r3, #2
 8000554:	429a      	cmp	r2, r3
 8000556:	dbf6      	blt.n	8000546 <LCD_INIT+0x82>
    LCD_command(0x06); // Modo entrada (incremento)
 8000558:	2006      	movs	r0, #6
 800055a:	f7ff fe7f 	bl	800025c <LCD_command>
    for (volatile int i = 0; i < 800; i++) __NOP();  // Pausa de 1ms
 800055e:	2300      	movs	r3, #0
 8000560:	60bb      	str	r3, [r7, #8]
 8000562:	e003      	b.n	800056c <LCD_INIT+0xa8>
 8000564:	46c0      	nop			@ (mov r8, r8)
 8000566:	68bb      	ldr	r3, [r7, #8]
 8000568:	3301      	adds	r3, #1
 800056a:	60bb      	str	r3, [r7, #8]
 800056c:	68ba      	ldr	r2, [r7, #8]
 800056e:	23c8      	movs	r3, #200	@ 0xc8
 8000570:	009b      	lsls	r3, r3, #2
 8000572:	429a      	cmp	r2, r3
 8000574:	dbf6      	blt.n	8000564 <LCD_INIT+0xa0>
    LCD_command(0x01); // Clear Display
 8000576:	2001      	movs	r0, #1
 8000578:	f7ff fe70 	bl	800025c <LCD_command>
    for (volatile int i = 0; i < 1600; i++) __NOP();  // Pausa de 2ms
 800057c:	2300      	movs	r3, #0
 800057e:	607b      	str	r3, [r7, #4]
 8000580:	e003      	b.n	800058a <LCD_INIT+0xc6>
 8000582:	46c0      	nop			@ (mov r8, r8)
 8000584:	687b      	ldr	r3, [r7, #4]
 8000586:	3301      	adds	r3, #1
 8000588:	607b      	str	r3, [r7, #4]
 800058a:	687a      	ldr	r2, [r7, #4]
 800058c:	23c8      	movs	r3, #200	@ 0xc8
 800058e:	00db      	lsls	r3, r3, #3
 8000590:	429a      	cmp	r2, r3
 8000592:	dbf6      	blt.n	8000582 <LCD_INIT+0xbe>
    LCD_command(0x0C); // Display ON, cursor OFF
 8000594:	200c      	movs	r0, #12
 8000596:	f7ff fe61 	bl	800025c <LCD_command>
}
 800059a:	46c0      	nop			@ (mov r8, r8)
 800059c:	46bd      	mov	sp, r7
 800059e:	b008      	add	sp, #32
 80005a0:	bd80      	pop	{r7, pc}
 80005a2:	46c0      	nop			@ (mov r8, r8)
 80005a4:	00009c3f 	.word	0x00009c3f

080005a8 <TIM2config>:

void TIM2config(void) {
 80005a8:	b580      	push	{r7, lr}
 80005aa:	af00      	add	r7, sp, #0
    RCC->APB1ENR |= (1<<0);   // Habilitar reloj a TIM2
 80005ac:	4b11      	ldr	r3, [pc, #68]	@ (80005f4 <TIM2config+0x4c>)
 80005ae:	6b9a      	ldr	r2, [r3, #56]	@ 0x38
 80005b0:	4b10      	ldr	r3, [pc, #64]	@ (80005f4 <TIM2config+0x4c>)
 80005b2:	2101      	movs	r1, #1
 80005b4:	430a      	orrs	r2, r1
 80005b6:	639a      	str	r2, [r3, #56]	@ 0x38
    TIM2->PSC = 16000 - 1;    // Prescaler: 16 MHz / 16000 = 1 kHz (1ms)
 80005b8:	2380      	movs	r3, #128	@ 0x80
 80005ba:	05db      	lsls	r3, r3, #23
 80005bc:	4a0e      	ldr	r2, [pc, #56]	@ (80005f8 <TIM2config+0x50>)
 80005be:	629a      	str	r2, [r3, #40]	@ 0x28
    TIM2->ARR = 200 - 1;      // Cada 200 * 1 ms = 200 ms
 80005c0:	2380      	movs	r3, #128	@ 0x80
 80005c2:	05db      	lsls	r3, r3, #23
 80005c4:	22c7      	movs	r2, #199	@ 0xc7
 80005c6:	62da      	str	r2, [r3, #44]	@ 0x2c
    TIM2->CNT = 0;
 80005c8:	2380      	movs	r3, #128	@ 0x80
 80005ca:	05db      	lsls	r3, r3, #23
 80005cc:	2200      	movs	r2, #0
 80005ce:	625a      	str	r2, [r3, #36]	@ 0x24
    TIM2->DIER |= (1<<0);     // Habilitar interrupción
 80005d0:	2380      	movs	r3, #128	@ 0x80
 80005d2:	05db      	lsls	r3, r3, #23
 80005d4:	68da      	ldr	r2, [r3, #12]
 80005d6:	2380      	movs	r3, #128	@ 0x80
 80005d8:	05db      	lsls	r3, r3, #23
 80005da:	2101      	movs	r1, #1
 80005dc:	430a      	orrs	r2, r1
 80005de:	60da      	str	r2, [r3, #12]
    TIM2->CR1 = (1<<0);       // Enable contador
 80005e0:	2380      	movs	r3, #128	@ 0x80
 80005e2:	05db      	lsls	r3, r3, #23
 80005e4:	2201      	movs	r2, #1
 80005e6:	601a      	str	r2, [r3, #0]
    NVIC_EnableIRQ(TIM2_IRQn);// Permitir interrupción
 80005e8:	200f      	movs	r0, #15
 80005ea:	f7ff fd8d 	bl	8000108 <__NVIC_EnableIRQ>
}
 80005ee:	46c0      	nop			@ (mov r8, r8)
 80005f0:	46bd      	mov	sp, r7
 80005f2:	bd80      	pop	{r7, pc}
 80005f4:	40021000 	.word	0x40021000
 80005f8:	00003e7f 	.word	0x00003e7f

080005fc <TIM2_IRQHandler>:

void TIM2_IRQHandler(void) {
 80005fc:	b580      	push	{r7, lr}
 80005fe:	af00      	add	r7, sp, #0
    TIM2->SR &= ~(1<<0); // Limpiar bandera de actualización (UIF)
 8000600:	2380      	movs	r3, #128	@ 0x80
 8000602:	05db      	lsls	r3, r3, #23
 8000604:	691a      	ldr	r2, [r3, #16]
 8000606:	2380      	movs	r3, #128	@ 0x80
 8000608:	05db      	lsls	r3, r3, #23
 800060a:	2101      	movs	r1, #1
 800060c:	438a      	bics	r2, r1
 800060e:	611a      	str	r2, [r3, #16]
    if (current_menu == 0) {
 8000610:	4bcb      	ldr	r3, [pc, #812]	@ (8000940 <TIM2_IRQHandler+0x344>)
 8000612:	781b      	ldrb	r3, [r3, #0]
 8000614:	b2db      	uxtb	r3, r3
 8000616:	2b00      	cmp	r3, #0
 8000618:	d000      	beq.n	800061c <TIM2_IRQHandler+0x20>
 800061a:	e0aa      	b.n	8000772 <TIM2_IRQHandler+0x176>
        switch (lcd_step) {
 800061c:	4bc9      	ldr	r3, [pc, #804]	@ (8000944 <TIM2_IRQHandler+0x348>)
 800061e:	781b      	ldrb	r3, [r3, #0]
 8000620:	b2db      	uxtb	r3, r3
 8000622:	2b24      	cmp	r3, #36	@ 0x24
 8000624:	d900      	bls.n	8000628 <TIM2_IRQHandler+0x2c>
 8000626:	e229      	b.n	8000a7c <TIM2_IRQHandler+0x480>
 8000628:	009a      	lsls	r2, r3, #2
 800062a:	4bc7      	ldr	r3, [pc, #796]	@ (8000948 <TIM2_IRQHandler+0x34c>)
 800062c:	18d3      	adds	r3, r2, r3
 800062e:	681b      	ldr	r3, [r3, #0]
 8000630:	469f      	mov	pc, r3
            case 0: LCD_command(0x01); LCD_command(0x80); break;
 8000632:	2001      	movs	r0, #1
 8000634:	f7ff fe12 	bl	800025c <LCD_command>
 8000638:	2080      	movs	r0, #128	@ 0x80
 800063a:	f7ff fe0f 	bl	800025c <LCD_command>
 800063e:	e224      	b.n	8000a8a <TIM2_IRQHandler+0x48e>
            case 1: LCD_data('1'); break;
 8000640:	2031      	movs	r0, #49	@ 0x31
 8000642:	f7ff fe4b 	bl	80002dc <LCD_data>
 8000646:	e220      	b.n	8000a8a <TIM2_IRQHandler+0x48e>
            case 2: LCD_data('.'); break;
 8000648:	202e      	movs	r0, #46	@ 0x2e
 800064a:	f7ff fe47 	bl	80002dc <LCD_data>
 800064e:	e21c      	b.n	8000a8a <TIM2_IRQHandler+0x48e>
            case 3: LCD_data('U'); break;
 8000650:	2055      	movs	r0, #85	@ 0x55
 8000652:	f7ff fe43 	bl	80002dc <LCD_data>
 8000656:	e218      	b.n	8000a8a <TIM2_IRQHandler+0x48e>
            case 4: LCD_data('s'); break;
 8000658:	2073      	movs	r0, #115	@ 0x73
 800065a:	f7ff fe3f 	bl	80002dc <LCD_data>
 800065e:	e214      	b.n	8000a8a <TIM2_IRQHandler+0x48e>
            case 5: LCD_data('u'); break;
 8000660:	2075      	movs	r0, #117	@ 0x75
 8000662:	f7ff fe3b 	bl	80002dc <LCD_data>
 8000666:	e210      	b.n	8000a8a <TIM2_IRQHandler+0x48e>
            case 6: LCD_data('a'); break;
 8000668:	2061      	movs	r0, #97	@ 0x61
 800066a:	f7ff fe37 	bl	80002dc <LCD_data>
 800066e:	e20c      	b.n	8000a8a <TIM2_IRQHandler+0x48e>
            case 7: LCD_data('r'); break;
 8000670:	2072      	movs	r0, #114	@ 0x72
 8000672:	f7ff fe33 	bl	80002dc <LCD_data>
 8000676:	e208      	b.n	8000a8a <TIM2_IRQHandler+0x48e>
            case 8: LCD_data('i'); break;
 8000678:	2069      	movs	r0, #105	@ 0x69
 800067a:	f7ff fe2f 	bl	80002dc <LCD_data>
 800067e:	e204      	b.n	8000a8a <TIM2_IRQHandler+0x48e>
            case 9: LCD_data('o'); break;
 8000680:	206f      	movs	r0, #111	@ 0x6f
 8000682:	f7ff fe2b 	bl	80002dc <LCD_data>
 8000686:	e200      	b.n	8000a8a <TIM2_IRQHandler+0x48e>
            case 10: LCD_data(' '); break;
 8000688:	2020      	movs	r0, #32
 800068a:	f7ff fe27 	bl	80002dc <LCD_data>
 800068e:	e1fc      	b.n	8000a8a <TIM2_IRQHandler+0x48e>
            case 11: LCD_data('y'); break;
 8000690:	2079      	movs	r0, #121	@ 0x79
 8000692:	f7ff fe23 	bl	80002dc <LCD_data>
 8000696:	e1f8      	b.n	8000a8a <TIM2_IRQHandler+0x48e>
            case 12: LCD_data(' '); break;
 8000698:	2020      	movs	r0, #32
 800069a:	f7ff fe1f 	bl	80002dc <LCD_data>
 800069e:	e1f4      	b.n	8000a8a <TIM2_IRQHandler+0x48e>
            case 13: LCD_data('P'); break;
 80006a0:	2050      	movs	r0, #80	@ 0x50
 80006a2:	f7ff fe1b 	bl	80002dc <LCD_data>
 80006a6:	e1f0      	b.n	8000a8a <TIM2_IRQHandler+0x48e>
            case 14: LCD_data('I'); break;
 80006a8:	2049      	movs	r0, #73	@ 0x49
 80006aa:	f7ff fe17 	bl	80002dc <LCD_data>
 80006ae:	e1ec      	b.n	8000a8a <TIM2_IRQHandler+0x48e>
            case 15: LCD_data('N'); break;
 80006b0:	204e      	movs	r0, #78	@ 0x4e
 80006b2:	f7ff fe13 	bl	80002dc <LCD_data>
 80006b6:	e1e8      	b.n	8000a8a <TIM2_IRQHandler+0x48e>
            case 16: LCD_command(0x01); LCD_command(0x80); break;
 80006b8:	2001      	movs	r0, #1
 80006ba:	f7ff fdcf 	bl	800025c <LCD_command>
 80006be:	2080      	movs	r0, #128	@ 0x80
 80006c0:	f7ff fdcc 	bl	800025c <LCD_command>
 80006c4:	e1e1      	b.n	8000a8a <TIM2_IRQHandler+0x48e>
            case 17: LCD_data('2'); break;
 80006c6:	2032      	movs	r0, #50	@ 0x32
 80006c8:	f7ff fe08 	bl	80002dc <LCD_data>
 80006cc:	e1dd      	b.n	8000a8a <TIM2_IRQHandler+0x48e>
            case 18: LCD_data('.'); break;
 80006ce:	202e      	movs	r0, #46	@ 0x2e
 80006d0:	f7ff fe04 	bl	80002dc <LCD_data>
 80006d4:	e1d9      	b.n	8000a8a <TIM2_IRQHandler+0x48e>
            case 19: LCD_data('C'); break;
 80006d6:	2043      	movs	r0, #67	@ 0x43
 80006d8:	f7ff fe00 	bl	80002dc <LCD_data>
 80006dc:	e1d5      	b.n	8000a8a <TIM2_IRQHandler+0x48e>
            case 20: LCD_data('e'); break;
 80006de:	2065      	movs	r0, #101	@ 0x65
 80006e0:	f7ff fdfc 	bl	80002dc <LCD_data>
 80006e4:	e1d1      	b.n	8000a8a <TIM2_IRQHandler+0x48e>
            case 21: LCD_data('l'); break;
 80006e6:	206c      	movs	r0, #108	@ 0x6c
 80006e8:	f7ff fdf8 	bl	80002dc <LCD_data>
 80006ec:	e1cd      	b.n	8000a8a <TIM2_IRQHandler+0x48e>
            case 22: LCD_data('u'); break;
 80006ee:	2075      	movs	r0, #117	@ 0x75
 80006f0:	f7ff fdf4 	bl	80002dc <LCD_data>
 80006f4:	e1c9      	b.n	8000a8a <TIM2_IRQHandler+0x48e>
            case 23: LCD_data('l'); break;
 80006f6:	206c      	movs	r0, #108	@ 0x6c
 80006f8:	f7ff fdf0 	bl	80002dc <LCD_data>
 80006fc:	e1c5      	b.n	8000a8a <TIM2_IRQHandler+0x48e>
            case 24: LCD_data('a'); break;
 80006fe:	2061      	movs	r0, #97	@ 0x61
 8000700:	f7ff fdec 	bl	80002dc <LCD_data>
 8000704:	e1c1      	b.n	8000a8a <TIM2_IRQHandler+0x48e>
            case 25: LCD_data('r'); break;
 8000706:	2072      	movs	r0, #114	@ 0x72
 8000708:	f7ff fde8 	bl	80002dc <LCD_data>
 800070c:	e1bd      	b.n	8000a8a <TIM2_IRQHandler+0x48e>
            case 26: LCD_command(0x01); LCD_command(0x80); break;
 800070e:	2001      	movs	r0, #1
 8000710:	f7ff fda4 	bl	800025c <LCD_command>
 8000714:	2080      	movs	r0, #128	@ 0x80
 8000716:	f7ff fda1 	bl	800025c <LCD_command>
 800071a:	e1b6      	b.n	8000a8a <TIM2_IRQHandler+0x48e>
            case 27: LCD_data('3'); break;
 800071c:	2033      	movs	r0, #51	@ 0x33
 800071e:	f7ff fddd 	bl	80002dc <LCD_data>
 8000722:	e1b2      	b.n	8000a8a <TIM2_IRQHandler+0x48e>
            case 28: LCD_data('.'); break;
 8000724:	202e      	movs	r0, #46	@ 0x2e
 8000726:	f7ff fdd9 	bl	80002dc <LCD_data>
 800072a:	e1ae      	b.n	8000a8a <TIM2_IRQHandler+0x48e>
            case 29: LCD_data('S'); break;
 800072c:	2053      	movs	r0, #83	@ 0x53
 800072e:	f7ff fdd5 	bl	80002dc <LCD_data>
 8000732:	e1aa      	b.n	8000a8a <TIM2_IRQHandler+0x48e>
            case 30: LCD_data('e'); break;
 8000734:	2065      	movs	r0, #101	@ 0x65
 8000736:	f7ff fdd1 	bl	80002dc <LCD_data>
 800073a:	e1a6      	b.n	8000a8a <TIM2_IRQHandler+0x48e>
            case 31: LCD_data('r'); break;
 800073c:	2072      	movs	r0, #114	@ 0x72
 800073e:	f7ff fdcd 	bl	80002dc <LCD_data>
 8000742:	e1a2      	b.n	8000a8a <TIM2_IRQHandler+0x48e>
            case 32: LCD_data('i'); break;
 8000744:	2069      	movs	r0, #105	@ 0x69
 8000746:	f7ff fdc9 	bl	80002dc <LCD_data>
 800074a:	e19e      	b.n	8000a8a <TIM2_IRQHandler+0x48e>
            case 33: LCD_data('a'); break;
 800074c:	2061      	movs	r0, #97	@ 0x61
 800074e:	f7ff fdc5 	bl	80002dc <LCD_data>
 8000752:	e19a      	b.n	8000a8a <TIM2_IRQHandler+0x48e>
            case 34: LCD_data('l'); break;
 8000754:	206c      	movs	r0, #108	@ 0x6c
 8000756:	f7ff fdc1 	bl	80002dc <LCD_data>
 800075a:	e196      	b.n	8000a8a <TIM2_IRQHandler+0x48e>
            case 35: LCD_command(0x01); LCD_command(0x80); break;
 800075c:	2001      	movs	r0, #1
 800075e:	f7ff fd7d 	bl	800025c <LCD_command>
 8000762:	2080      	movs	r0, #128	@ 0x80
 8000764:	f7ff fd7a 	bl	800025c <LCD_command>
 8000768:	e18f      	b.n	8000a8a <TIM2_IRQHandler+0x48e>
            case 36: lcd_step = 0; break; // Reiniciar al menú principal
 800076a:	4b76      	ldr	r3, [pc, #472]	@ (8000944 <TIM2_IRQHandler+0x348>)
 800076c:	2200      	movs	r2, #0
 800076e:	701a      	strb	r2, [r3, #0]
 8000770:	e18b      	b.n	8000a8a <TIM2_IRQHandler+0x48e>
            default: break;
        }
    }
    else if (current_menu == 1) {
 8000772:	4b73      	ldr	r3, [pc, #460]	@ (8000940 <TIM2_IRQHandler+0x344>)
 8000774:	781b      	ldrb	r3, [r3, #0]
 8000776:	b2db      	uxtb	r3, r3
 8000778:	2b01      	cmp	r3, #1
 800077a:	d000      	beq.n	800077e <TIM2_IRQHandler+0x182>
 800077c:	e0e8      	b.n	8000950 <TIM2_IRQHandler+0x354>
        // Menú secundario (cuando recibes '3')
        switch (lcd_step) {
 800077e:	4b71      	ldr	r3, [pc, #452]	@ (8000944 <TIM2_IRQHandler+0x348>)
 8000780:	781b      	ldrb	r3, [r3, #0]
 8000782:	b2db      	uxtb	r3, r3
 8000784:	2b32      	cmp	r3, #50	@ 0x32
 8000786:	d900      	bls.n	800078a <TIM2_IRQHandler+0x18e>
 8000788:	e17a      	b.n	8000a80 <TIM2_IRQHandler+0x484>
 800078a:	009a      	lsls	r2, r3, #2
 800078c:	4b6f      	ldr	r3, [pc, #444]	@ (800094c <TIM2_IRQHandler+0x350>)
 800078e:	18d3      	adds	r3, r2, r3
 8000790:	681b      	ldr	r3, [r3, #0]
 8000792:	469f      	mov	pc, r3
            case 0: LCD_command(0x01); LCD_command(0x80); break;
 8000794:	2001      	movs	r0, #1
 8000796:	f7ff fd61 	bl	800025c <LCD_command>
 800079a:	2080      	movs	r0, #128	@ 0x80
 800079c:	f7ff fd5e 	bl	800025c <LCD_command>
 80007a0:	e173      	b.n	8000a8a <TIM2_IRQHandler+0x48e>
            case 1: LCD_data('1'); break;
 80007a2:	2031      	movs	r0, #49	@ 0x31
 80007a4:	f7ff fd9a 	bl	80002dc <LCD_data>
 80007a8:	e16f      	b.n	8000a8a <TIM2_IRQHandler+0x48e>
            case 2: LCD_data('.'); break;
 80007aa:	202e      	movs	r0, #46	@ 0x2e
 80007ac:	f7ff fd96 	bl	80002dc <LCD_data>
 80007b0:	e16b      	b.n	8000a8a <TIM2_IRQHandler+0x48e>
            case 3: LCD_data('R'); break;
 80007b2:	2052      	movs	r0, #82	@ 0x52
 80007b4:	f7ff fd92 	bl	80002dc <LCD_data>
 80007b8:	e167      	b.n	8000a8a <TIM2_IRQHandler+0x48e>
            case 4: LCD_data('e'); break;
 80007ba:	2065      	movs	r0, #101	@ 0x65
 80007bc:	f7ff fd8e 	bl	80002dc <LCD_data>
 80007c0:	e163      	b.n	8000a8a <TIM2_IRQHandler+0x48e>
            case 5: LCD_data('t'); break;
 80007c2:	2074      	movs	r0, #116	@ 0x74
 80007c4:	f7ff fd8a 	bl	80002dc <LCD_data>
 80007c8:	e15f      	b.n	8000a8a <TIM2_IRQHandler+0x48e>
            case 6: LCD_data('i'); break;
 80007ca:	2069      	movs	r0, #105	@ 0x69
 80007cc:	f7ff fd86 	bl	80002dc <LCD_data>
 80007d0:	e15b      	b.n	8000a8a <TIM2_IRQHandler+0x48e>
            case 7: LCD_data('r'); break;
 80007d2:	2072      	movs	r0, #114	@ 0x72
 80007d4:	f7ff fd82 	bl	80002dc <LCD_data>
 80007d8:	e157      	b.n	8000a8a <TIM2_IRQHandler+0x48e>
            case 8: LCD_data('o'); break;
 80007da:	206f      	movs	r0, #111	@ 0x6f
 80007dc:	f7ff fd7e 	bl	80002dc <LCD_data>
 80007e0:	e153      	b.n	8000a8a <TIM2_IRQHandler+0x48e>
            case 9: LCD_data(' '); break;
 80007e2:	2020      	movs	r0, #32
 80007e4:	f7ff fd7a 	bl	80002dc <LCD_data>
 80007e8:	e14f      	b.n	8000a8a <TIM2_IRQHandler+0x48e>
            case 10: LCD_data('s'); break;
 80007ea:	2073      	movs	r0, #115	@ 0x73
 80007ec:	f7ff fd76 	bl	80002dc <LCD_data>
 80007f0:	e14b      	b.n	8000a8a <TIM2_IRQHandler+0x48e>
            case 11: LCD_data('i'); break;
 80007f2:	2069      	movs	r0, #105	@ 0x69
 80007f4:	f7ff fd72 	bl	80002dc <LCD_data>
 80007f8:	e147      	b.n	8000a8a <TIM2_IRQHandler+0x48e>
            case 12: LCD_data('n'); break;
 80007fa:	206e      	movs	r0, #110	@ 0x6e
 80007fc:	f7ff fd6e 	bl	80002dc <LCD_data>
 8000800:	e143      	b.n	8000a8a <TIM2_IRQHandler+0x48e>
            case 13: LCD_data(' '); break;
 8000802:	2020      	movs	r0, #32
 8000804:	f7ff fd6a 	bl	80002dc <LCD_data>
 8000808:	e13f      	b.n	8000a8a <TIM2_IRQHandler+0x48e>
            case 14: LCD_data('P'); break;
 800080a:	2050      	movs	r0, #80	@ 0x50
 800080c:	f7ff fd66 	bl	80002dc <LCD_data>
 8000810:	e13b      	b.n	8000a8a <TIM2_IRQHandler+0x48e>
            case 15: LCD_data('I'); break;
 8000812:	2049      	movs	r0, #73	@ 0x49
 8000814:	f7ff fd62 	bl	80002dc <LCD_data>
 8000818:	e137      	b.n	8000a8a <TIM2_IRQHandler+0x48e>
            case 16: LCD_data('N'); break;
 800081a:	204e      	movs	r0, #78	@ 0x4e
 800081c:	f7ff fd5e 	bl	80002dc <LCD_data>
 8000820:	e133      	b.n	8000a8a <TIM2_IRQHandler+0x48e>
            case 17: LCD_command(0x01); LCD_command(0x80); break;
 8000822:	2001      	movs	r0, #1
 8000824:	f7ff fd1a 	bl	800025c <LCD_command>
 8000828:	2080      	movs	r0, #128	@ 0x80
 800082a:	f7ff fd17 	bl	800025c <LCD_command>
 800082e:	e12c      	b.n	8000a8a <TIM2_IRQHandler+0x48e>
            case 18: LCD_data('2'); break;
 8000830:	2032      	movs	r0, #50	@ 0x32
 8000832:	f7ff fd53 	bl	80002dc <LCD_data>
 8000836:	e128      	b.n	8000a8a <TIM2_IRQHandler+0x48e>
            case 19: LCD_data('.'); break;
 8000838:	202e      	movs	r0, #46	@ 0x2e
 800083a:	f7ff fd4f 	bl	80002dc <LCD_data>
 800083e:	e124      	b.n	8000a8a <TIM2_IRQHandler+0x48e>
            case 20: LCD_data('E'); break;
 8000840:	2045      	movs	r0, #69	@ 0x45
 8000842:	f7ff fd4b 	bl	80002dc <LCD_data>
 8000846:	e120      	b.n	8000a8a <TIM2_IRQHandler+0x48e>
            case 21: LCD_data('n'); break;
 8000848:	206e      	movs	r0, #110	@ 0x6e
 800084a:	f7ff fd47 	bl	80002dc <LCD_data>
 800084e:	e11c      	b.n	8000a8a <TIM2_IRQHandler+0x48e>
            case 22: LCD_data('v'); break;
 8000850:	2076      	movs	r0, #118	@ 0x76
 8000852:	f7ff fd43 	bl	80002dc <LCD_data>
 8000856:	e118      	b.n	8000a8a <TIM2_IRQHandler+0x48e>
            case 23: LCD_data('i'); break;
 8000858:	2069      	movs	r0, #105	@ 0x69
 800085a:	f7ff fd3f 	bl	80002dc <LCD_data>
 800085e:	e114      	b.n	8000a8a <TIM2_IRQHandler+0x48e>
            case 24: LCD_data('o'); break;
 8000860:	206f      	movs	r0, #111	@ 0x6f
 8000862:	f7ff fd3b 	bl	80002dc <LCD_data>
 8000866:	e110      	b.n	8000a8a <TIM2_IRQHandler+0x48e>
            case 25: LCD_data(' '); break;
 8000868:	2020      	movs	r0, #32
 800086a:	f7ff fd37 	bl	80002dc <LCD_data>
 800086e:	e10c      	b.n	8000a8a <TIM2_IRQHandler+0x48e>
            case 26: LCD_data('r'); break;
 8000870:	2072      	movs	r0, #114	@ 0x72
 8000872:	f7ff fd33 	bl	80002dc <LCD_data>
 8000876:	e108      	b.n	8000a8a <TIM2_IRQHandler+0x48e>
            case 27: LCD_data('e'); break;
 8000878:	2065      	movs	r0, #101	@ 0x65
 800087a:	f7ff fd2f 	bl	80002dc <LCD_data>
 800087e:	e104      	b.n	8000a8a <TIM2_IRQHandler+0x48e>
            case 28: LCD_data('m'); break;
 8000880:	206d      	movs	r0, #109	@ 0x6d
 8000882:	f7ff fd2b 	bl	80002dc <LCD_data>
 8000886:	e100      	b.n	8000a8a <TIM2_IRQHandler+0x48e>
            case 29: LCD_data('e'); break;
 8000888:	2065      	movs	r0, #101	@ 0x65
 800088a:	f7ff fd27 	bl	80002dc <LCD_data>
 800088e:	e0fc      	b.n	8000a8a <TIM2_IRQHandler+0x48e>
            case 30: LCD_data('s'); break;
 8000890:	2073      	movs	r0, #115	@ 0x73
 8000892:	f7ff fd23 	bl	80002dc <LCD_data>
 8000896:	e0f8      	b.n	8000a8a <TIM2_IRQHandler+0x48e>
            case 31: LCD_data('a'); break;
 8000898:	2061      	movs	r0, #97	@ 0x61
 800089a:	f7ff fd1f 	bl	80002dc <LCD_data>
 800089e:	e0f4      	b.n	8000a8a <TIM2_IRQHandler+0x48e>
            case 32: LCD_data('s'); break;
 80008a0:	2073      	movs	r0, #115	@ 0x73
 80008a2:	f7ff fd1b 	bl	80002dc <LCD_data>
 80008a6:	e0f0      	b.n	8000a8a <TIM2_IRQHandler+0x48e>
            case 33: LCD_command(0x01); LCD_command(0x80); break;
 80008a8:	2001      	movs	r0, #1
 80008aa:	f7ff fcd7 	bl	800025c <LCD_command>
 80008ae:	2080      	movs	r0, #128	@ 0x80
 80008b0:	f7ff fcd4 	bl	800025c <LCD_command>
 80008b4:	e0e9      	b.n	8000a8a <TIM2_IRQHandler+0x48e>
            case 34: LCD_data('3'); break;
 80008b6:	2033      	movs	r0, #51	@ 0x33
 80008b8:	f7ff fd10 	bl	80002dc <LCD_data>
 80008bc:	e0e5      	b.n	8000a8a <TIM2_IRQHandler+0x48e>
            case 35: LCD_data('.'); break;
 80008be:	202e      	movs	r0, #46	@ 0x2e
 80008c0:	f7ff fd0c 	bl	80002dc <LCD_data>
 80008c4:	e0e1      	b.n	8000a8a <TIM2_IRQHandler+0x48e>
            case 36: LCD_data('C'); break;
 80008c6:	2043      	movs	r0, #67	@ 0x43
 80008c8:	f7ff fd08 	bl	80002dc <LCD_data>
 80008cc:	e0dd      	b.n	8000a8a <TIM2_IRQHandler+0x48e>
            case 37: LCD_data('o'); break;
 80008ce:	206f      	movs	r0, #111	@ 0x6f
 80008d0:	f7ff fd04 	bl	80002dc <LCD_data>
 80008d4:	e0d9      	b.n	8000a8a <TIM2_IRQHandler+0x48e>
            case 38: LCD_data('n'); break;
 80008d6:	206e      	movs	r0, #110	@ 0x6e
 80008d8:	f7ff fd00 	bl	80002dc <LCD_data>
 80008dc:	e0d5      	b.n	8000a8a <TIM2_IRQHandler+0x48e>
            case 39: LCD_data('s'); break;
 80008de:	2073      	movs	r0, #115	@ 0x73
 80008e0:	f7ff fcfc 	bl	80002dc <LCD_data>
 80008e4:	e0d1      	b.n	8000a8a <TIM2_IRQHandler+0x48e>
            case 40: LCD_data('u'); break;
 80008e6:	2075      	movs	r0, #117	@ 0x75
 80008e8:	f7ff fcf8 	bl	80002dc <LCD_data>
 80008ec:	e0cd      	b.n	8000a8a <TIM2_IRQHandler+0x48e>
            case 41: LCD_data('l'); break;
 80008ee:	206c      	movs	r0, #108	@ 0x6c
 80008f0:	f7ff fcf4 	bl	80002dc <LCD_data>
 80008f4:	e0c9      	b.n	8000a8a <TIM2_IRQHandler+0x48e>
            case 42: LCD_data('t'); break;
 80008f6:	2074      	movs	r0, #116	@ 0x74
 80008f8:	f7ff fcf0 	bl	80002dc <LCD_data>
 80008fc:	e0c5      	b.n	8000a8a <TIM2_IRQHandler+0x48e>
            case 43: LCD_data('a'); break;
 80008fe:	2061      	movs	r0, #97	@ 0x61
 8000900:	f7ff fcec 	bl	80002dc <LCD_data>
 8000904:	e0c1      	b.n	8000a8a <TIM2_IRQHandler+0x48e>
            case 44: LCD_data(' '); break;
 8000906:	2020      	movs	r0, #32
 8000908:	f7ff fce8 	bl	80002dc <LCD_data>
 800090c:	e0bd      	b.n	8000a8a <TIM2_IRQHandler+0x48e>
            case 45: LCD_data('s'); break;
 800090e:	2073      	movs	r0, #115	@ 0x73
 8000910:	f7ff fce4 	bl	80002dc <LCD_data>
 8000914:	e0b9      	b.n	8000a8a <TIM2_IRQHandler+0x48e>
            case 46: LCD_data('a'); break;
 8000916:	2061      	movs	r0, #97	@ 0x61
 8000918:	f7ff fce0 	bl	80002dc <LCD_data>
 800091c:	e0b5      	b.n	8000a8a <TIM2_IRQHandler+0x48e>
            case 47: LCD_data('l'); break;
 800091e:	206c      	movs	r0, #108	@ 0x6c
 8000920:	f7ff fcdc 	bl	80002dc <LCD_data>
 8000924:	e0b1      	b.n	8000a8a <TIM2_IRQHandler+0x48e>
            case 48: LCD_data('d'); break;
 8000926:	2064      	movs	r0, #100	@ 0x64
 8000928:	f7ff fcd8 	bl	80002dc <LCD_data>
 800092c:	e0ad      	b.n	8000a8a <TIM2_IRQHandler+0x48e>
            case 49: LCD_data('o'); break;
 800092e:	206f      	movs	r0, #111	@ 0x6f
 8000930:	f7ff fcd4 	bl	80002dc <LCD_data>
 8000934:	e0a9      	b.n	8000a8a <TIM2_IRQHandler+0x48e>
            case 50: lcd_step = 0; break; // Reiniciar al nuevo menú
 8000936:	4b03      	ldr	r3, [pc, #12]	@ (8000944 <TIM2_IRQHandler+0x348>)
 8000938:	2200      	movs	r2, #0
 800093a:	701a      	strb	r2, [r3, #0]
 800093c:	e0a5      	b.n	8000a8a <TIM2_IRQHandler+0x48e>
 800093e:	46c0      	nop			@ (mov r8, r8)
 8000940:	20000039 	.word	0x20000039
 8000944:	20000038 	.word	0x20000038
 8000948:	08001504 	.word	0x08001504
 800094c:	08001598 	.word	0x08001598
            default: break;
        }
    }
    else if (current_menu == 2) {
 8000950:	4b53      	ldr	r3, [pc, #332]	@ (8000aa0 <TIM2_IRQHandler+0x4a4>)
 8000952:	781b      	ldrb	r3, [r3, #0]
 8000954:	b2db      	uxtb	r3, r3
 8000956:	2b02      	cmp	r3, #2
 8000958:	d167      	bne.n	8000a2a <TIM2_IRQHandler+0x42e>

            // Menú secundario (cuando recibes '3')
            switch (lcd_step) {
 800095a:	4b52      	ldr	r3, [pc, #328]	@ (8000aa4 <TIM2_IRQHandler+0x4a8>)
 800095c:	781b      	ldrb	r3, [r3, #0]
 800095e:	b2db      	uxtb	r3, r3
 8000960:	2b14      	cmp	r3, #20
 8000962:	d900      	bls.n	8000966 <TIM2_IRQHandler+0x36a>
 8000964:	e08e      	b.n	8000a84 <TIM2_IRQHandler+0x488>
 8000966:	009a      	lsls	r2, r3, #2
 8000968:	4b4f      	ldr	r3, [pc, #316]	@ (8000aa8 <TIM2_IRQHandler+0x4ac>)
 800096a:	18d3      	adds	r3, r2, r3
 800096c:	681b      	ldr	r3, [r3, #0]
 800096e:	469f      	mov	pc, r3
                case 0: LCD_command(0x01); LCD_command(0x80); break;
 8000970:	2001      	movs	r0, #1
 8000972:	f7ff fc73 	bl	800025c <LCD_command>
 8000976:	2080      	movs	r0, #128	@ 0x80
 8000978:	f7ff fc70 	bl	800025c <LCD_command>
 800097c:	e085      	b.n	8000a8a <TIM2_IRQHandler+0x48e>
                case 1: LCD_data('1'); break;
 800097e:	2031      	movs	r0, #49	@ 0x31
 8000980:	f7ff fcac 	bl	80002dc <LCD_data>
 8000984:	e081      	b.n	8000a8a <TIM2_IRQHandler+0x48e>
                case 2: LCD_data('.'); break;
 8000986:	202e      	movs	r0, #46	@ 0x2e
 8000988:	f7ff fca8 	bl	80002dc <LCD_data>
 800098c:	e07d      	b.n	8000a8a <TIM2_IRQHandler+0x48e>
                case 3: LCD_data('R'); break;
 800098e:	2052      	movs	r0, #82	@ 0x52
 8000990:	f7ff fca4 	bl	80002dc <LCD_data>
 8000994:	e079      	b.n	8000a8a <TIM2_IRQHandler+0x48e>
                case 4: LCD_data('E'); break;
 8000996:	2045      	movs	r0, #69	@ 0x45
 8000998:	f7ff fca0 	bl	80002dc <LCD_data>
 800099c:	e075      	b.n	8000a8a <TIM2_IRQHandler+0x48e>
                case 5: LCD_data('T'); break;
 800099e:	2054      	movs	r0, #84	@ 0x54
 80009a0:	f7ff fc9c 	bl	80002dc <LCD_data>
 80009a4:	e071      	b.n	8000a8a <TIM2_IRQHandler+0x48e>
                case 6: LCD_data('I'); break;
 80009a6:	2049      	movs	r0, #73	@ 0x49
 80009a8:	f7ff fc98 	bl	80002dc <LCD_data>
 80009ac:	e06d      	b.n	8000a8a <TIM2_IRQHandler+0x48e>
                case 7: LCD_data('R'); break;
 80009ae:	2052      	movs	r0, #82	@ 0x52
 80009b0:	f7ff fc94 	bl	80002dc <LCD_data>
 80009b4:	e069      	b.n	8000a8a <TIM2_IRQHandler+0x48e>
                case 8: LCD_data('O'); break;
 80009b6:	204f      	movs	r0, #79	@ 0x4f
 80009b8:	f7ff fc90 	bl	80002dc <LCD_data>
 80009bc:	e065      	b.n	8000a8a <TIM2_IRQHandler+0x48e>
                case 9: LCD_command(0x01); LCD_command(0x80); break;
 80009be:	2001      	movs	r0, #1
 80009c0:	f7ff fc4c 	bl	800025c <LCD_command>
 80009c4:	2080      	movs	r0, #128	@ 0x80
 80009c6:	f7ff fc49 	bl	800025c <LCD_command>
 80009ca:	e05e      	b.n	8000a8a <TIM2_IRQHandler+0x48e>
                case 10: LCD_data('Q'); break;
 80009cc:	2051      	movs	r0, #81	@ 0x51
 80009ce:	f7ff fc85 	bl	80002dc <LCD_data>
 80009d2:	e05a      	b.n	8000a8a <TIM2_IRQHandler+0x48e>
                case 11: LCD_data('+'); break;
 80009d4:	202b      	movs	r0, #43	@ 0x2b
 80009d6:	f7ff fc81 	bl	80002dc <LCD_data>
 80009da:	e056      	b.n	8000a8a <TIM2_IRQHandler+0x48e>
                case 12: LCD_data('C'); break;
 80009dc:	2043      	movs	r0, #67	@ 0x43
 80009de:	f7ff fc7d 	bl	80002dc <LCD_data>
 80009e2:	e052      	b.n	8000a8a <TIM2_IRQHandler+0x48e>
                case 13: LCD_data('A'); break;
 80009e4:	2041      	movs	r0, #65	@ 0x41
 80009e6:	f7ff fc79 	bl	80002dc <LCD_data>
 80009ea:	e04e      	b.n	8000a8a <TIM2_IRQHandler+0x48e>
                case 14: LCD_data('N'); break;
 80009ec:	204e      	movs	r0, #78	@ 0x4e
 80009ee:	f7ff fc75 	bl	80002dc <LCD_data>
 80009f2:	e04a      	b.n	8000a8a <TIM2_IRQHandler+0x48e>
                case 15: LCD_data('T'); break;
 80009f4:	2054      	movs	r0, #84	@ 0x54
 80009f6:	f7ff fc71 	bl	80002dc <LCD_data>
 80009fa:	e046      	b.n	8000a8a <TIM2_IRQHandler+0x48e>
                case 16: LCD_data('D'); break;
 80009fc:	2044      	movs	r0, #68	@ 0x44
 80009fe:	f7ff fc6d 	bl	80002dc <LCD_data>
 8000a02:	e042      	b.n	8000a8a <TIM2_IRQHandler+0x48e>
                case 17: LCD_data('A'); break;
 8000a04:	2041      	movs	r0, #65	@ 0x41
 8000a06:	f7ff fc69 	bl	80002dc <LCD_data>
 8000a0a:	e03e      	b.n	8000a8a <TIM2_IRQHandler+0x48e>
                case 18: LCD_data('D'); break;
 8000a0c:	2044      	movs	r0, #68	@ 0x44
 8000a0e:	f7ff fc65 	bl	80002dc <LCD_data>
 8000a12:	e03a      	b.n	8000a8a <TIM2_IRQHandler+0x48e>
                case 19: LCD_command(0x01); LCD_command(0x80); break;
 8000a14:	2001      	movs	r0, #1
 8000a16:	f7ff fc21 	bl	800025c <LCD_command>
 8000a1a:	2080      	movs	r0, #128	@ 0x80
 8000a1c:	f7ff fc1e 	bl	800025c <LCD_command>
 8000a20:	e033      	b.n	8000a8a <TIM2_IRQHandler+0x48e>
                case 20: lcd_step = 0; break;
 8000a22:	4b20      	ldr	r3, [pc, #128]	@ (8000aa4 <TIM2_IRQHandler+0x4a8>)
 8000a24:	2200      	movs	r2, #0
 8000a26:	701a      	strb	r2, [r3, #0]
 8000a28:	e02f      	b.n	8000a8a <TIM2_IRQHandler+0x48e>
                default: break;
            }
        }

    else if (current_menu == 3) {
 8000a2a:	4b1d      	ldr	r3, [pc, #116]	@ (8000aa0 <TIM2_IRQHandler+0x4a4>)
 8000a2c:	781b      	ldrb	r3, [r3, #0]
 8000a2e:	b2db      	uxtb	r3, r3
 8000a30:	2b03      	cmp	r3, #3
 8000a32:	d12a      	bne.n	8000a8a <TIM2_IRQHandler+0x48e>
			switch (lcd_step) {
 8000a34:	4b1b      	ldr	r3, [pc, #108]	@ (8000aa4 <TIM2_IRQHandler+0x4a8>)
 8000a36:	781b      	ldrb	r3, [r3, #0]
 8000a38:	b2db      	uxtb	r3, r3
 8000a3a:	2b04      	cmp	r3, #4
 8000a3c:	d824      	bhi.n	8000a88 <TIM2_IRQHandler+0x48c>
 8000a3e:	009a      	lsls	r2, r3, #2
 8000a40:	4b1a      	ldr	r3, [pc, #104]	@ (8000aac <TIM2_IRQHandler+0x4b0>)
 8000a42:	18d3      	adds	r3, r2, r3
 8000a44:	681b      	ldr	r3, [r3, #0]
 8000a46:	469f      	mov	pc, r3
				case 0: LCD_command(0x01); LCD_command(0x80); break;
 8000a48:	2001      	movs	r0, #1
 8000a4a:	f7ff fc07 	bl	800025c <LCD_command>
 8000a4e:	2080      	movs	r0, #128	@ 0x80
 8000a50:	f7ff fc04 	bl	800025c <LCD_command>
 8000a54:	e019      	b.n	8000a8a <TIM2_IRQHandler+0x48e>
				case 1: LCD_data('Q'); break;
 8000a56:	2051      	movs	r0, #81	@ 0x51
 8000a58:	f7ff fc40 	bl	80002dc <LCD_data>
 8000a5c:	e015      	b.n	8000a8a <TIM2_IRQHandler+0x48e>
				case 2: LCD_data('1'); break;
 8000a5e:	2031      	movs	r0, #49	@ 0x31
 8000a60:	f7ff fc3c 	bl	80002dc <LCD_data>
 8000a64:	e011      	b.n	8000a8a <TIM2_IRQHandler+0x48e>
				case 3: LCD_data('0'); break;
 8000a66:	2030      	movs	r0, #48	@ 0x30
 8000a68:	f7ff fc38 	bl	80002dc <LCD_data>
 8000a6c:	e00d      	b.n	8000a8a <TIM2_IRQHandler+0x48e>
				case 4: current_menu = 0;  lcd_step = 0;  break; // Reiniciar al nuevo menú
 8000a6e:	4b0c      	ldr	r3, [pc, #48]	@ (8000aa0 <TIM2_IRQHandler+0x4a4>)
 8000a70:	2200      	movs	r2, #0
 8000a72:	701a      	strb	r2, [r3, #0]
 8000a74:	4b0b      	ldr	r3, [pc, #44]	@ (8000aa4 <TIM2_IRQHandler+0x4a8>)
 8000a76:	2200      	movs	r2, #0
 8000a78:	701a      	strb	r2, [r3, #0]
 8000a7a:	e006      	b.n	8000a8a <TIM2_IRQHandler+0x48e>
            default: break;
 8000a7c:	46c0      	nop			@ (mov r8, r8)
 8000a7e:	e004      	b.n	8000a8a <TIM2_IRQHandler+0x48e>
            default: break;
 8000a80:	46c0      	nop			@ (mov r8, r8)
 8000a82:	e002      	b.n	8000a8a <TIM2_IRQHandler+0x48e>
                default: break;
 8000a84:	46c0      	nop			@ (mov r8, r8)
 8000a86:	e000      	b.n	8000a8a <TIM2_IRQHandler+0x48e>
				default: break;
 8000a88:	46c0      	nop			@ (mov r8, r8)
			}
		}

    lcd_step++;
 8000a8a:	4b06      	ldr	r3, [pc, #24]	@ (8000aa4 <TIM2_IRQHandler+0x4a8>)
 8000a8c:	781b      	ldrb	r3, [r3, #0]
 8000a8e:	b2db      	uxtb	r3, r3
 8000a90:	3301      	adds	r3, #1
 8000a92:	b2da      	uxtb	r2, r3
 8000a94:	4b03      	ldr	r3, [pc, #12]	@ (8000aa4 <TIM2_IRQHandler+0x4a8>)
 8000a96:	701a      	strb	r2, [r3, #0]
}
 8000a98:	46c0      	nop			@ (mov r8, r8)
 8000a9a:	46bd      	mov	sp, r7
 8000a9c:	bd80      	pop	{r7, pc}
 8000a9e:	46c0      	nop			@ (mov r8, r8)
 8000aa0:	20000039 	.word	0x20000039
 8000aa4:	20000038 	.word	0x20000038
 8000aa8:	08001664 	.word	0x08001664
 8000aac:	080016b8 	.word	0x080016b8

08000ab0 <TIM21config>:

void TIM21config (void) {
 8000ab0:	b580      	push	{r7, lr}
 8000ab2:	af00      	add	r7, sp, #0

	RCC->APB2ENR |= (1<<2); //Se encuentra operando a 2ms
 8000ab4:	4b10      	ldr	r3, [pc, #64]	@ (8000af8 <TIM21config+0x48>)
 8000ab6:	6b5a      	ldr	r2, [r3, #52]	@ 0x34
 8000ab8:	4b0f      	ldr	r3, [pc, #60]	@ (8000af8 <TIM21config+0x48>)
 8000aba:	2104      	movs	r1, #4
 8000abc:	430a      	orrs	r2, r1
 8000abe:	635a      	str	r2, [r3, #52]	@ 0x34
	TIM21->PSC = 16000-1;
 8000ac0:	4b0e      	ldr	r3, [pc, #56]	@ (8000afc <TIM21config+0x4c>)
 8000ac2:	4a0f      	ldr	r2, [pc, #60]	@ (8000b00 <TIM21config+0x50>)
 8000ac4:	629a      	str	r2, [r3, #40]	@ 0x28
	TIM21->ARR = 2-1;
 8000ac6:	4b0d      	ldr	r3, [pc, #52]	@ (8000afc <TIM21config+0x4c>)
 8000ac8:	2201      	movs	r2, #1
 8000aca:	62da      	str	r2, [r3, #44]	@ 0x2c
	TIM21->CNT = 0;
 8000acc:	4b0b      	ldr	r3, [pc, #44]	@ (8000afc <TIM21config+0x4c>)
 8000ace:	2200      	movs	r2, #0
 8000ad0:	625a      	str	r2, [r3, #36]	@ 0x24
	TIM21->CR1 = (1<<0);
 8000ad2:	4b0a      	ldr	r3, [pc, #40]	@ (8000afc <TIM21config+0x4c>)
 8000ad4:	2201      	movs	r2, #1
 8000ad6:	601a      	str	r2, [r3, #0]
	TIM21->DIER |= (1<<0);  //Enable Mode Interrupt
 8000ad8:	4b08      	ldr	r3, [pc, #32]	@ (8000afc <TIM21config+0x4c>)
 8000ada:	68da      	ldr	r2, [r3, #12]
 8000adc:	4b07      	ldr	r3, [pc, #28]	@ (8000afc <TIM21config+0x4c>)
 8000ade:	2101      	movs	r1, #1
 8000ae0:	430a      	orrs	r2, r1
 8000ae2:	60da      	str	r2, [r3, #12]
	NVIC_SetPriority(TIM21_IRQn, 2);   /* más bajo que USART */
 8000ae4:	2102      	movs	r1, #2
 8000ae6:	2014      	movs	r0, #20
 8000ae8:	f7ff fb28 	bl	800013c <__NVIC_SetPriority>
	NVIC_EnableIRQ(TIM21_IRQn);
 8000aec:	2014      	movs	r0, #20
 8000aee:	f7ff fb0b 	bl	8000108 <__NVIC_EnableIRQ>
}
 8000af2:	46c0      	nop			@ (mov r8, r8)
 8000af4:	46bd      	mov	sp, r7
 8000af6:	bd80      	pop	{r7, pc}
 8000af8:	40021000 	.word	0x40021000
 8000afc:	40010800 	.word	0x40010800
 8000b00:	00003e7f 	.word	0x00003e7f

08000b04 <TIM21_IRQHandler>:

void TIM21_IRQHandler() {
 8000b04:	b580      	push	{r7, lr}
 8000b06:	af00      	add	r7, sp, #0
	if (flag_received_USART2) {
 8000b08:	4bac      	ldr	r3, [pc, #688]	@ (8000dbc <TIM21_IRQHandler+0x2b8>)
 8000b0a:	781b      	ldrb	r3, [r3, #0]
 8000b0c:	b2db      	uxtb	r3, r3
 8000b0e:	2b00      	cmp	r3, #0
 8000b10:	d100      	bne.n	8000b14 <TIM21_IRQHandler+0x10>
 8000b12:	e08a      	b.n	8000c2a <TIM21_IRQHandler+0x126>
		flag_received_USART2 = 0;
 8000b14:	4ba9      	ldr	r3, [pc, #676]	@ (8000dbc <TIM21_IRQHandler+0x2b8>)
 8000b16:	2200      	movs	r2, #0
 8000b18:	701a      	strb	r2, [r3, #0]
		if (current_menu == 0 && received_char_USART2 == '3') {
 8000b1a:	4ba9      	ldr	r3, [pc, #676]	@ (8000dc0 <TIM21_IRQHandler+0x2bc>)
 8000b1c:	781b      	ldrb	r3, [r3, #0]
 8000b1e:	b2db      	uxtb	r3, r3
 8000b20:	2b00      	cmp	r3, #0
 8000b22:	d11b      	bne.n	8000b5c <TIM21_IRQHandler+0x58>
 8000b24:	4ba7      	ldr	r3, [pc, #668]	@ (8000dc4 <TIM21_IRQHandler+0x2c0>)
 8000b26:	781b      	ldrb	r3, [r3, #0]
 8000b28:	b2db      	uxtb	r3, r3
 8000b2a:	2b33      	cmp	r3, #51	@ 0x33
 8000b2c:	d116      	bne.n	8000b5c <TIM21_IRQHandler+0x58>
			current_menu = 1;
 8000b2e:	4ba4      	ldr	r3, [pc, #656]	@ (8000dc0 <TIM21_IRQHandler+0x2bc>)
 8000b30:	2201      	movs	r2, #1
 8000b32:	701a      	strb	r2, [r3, #0]
			lcd_step     = 0;
 8000b34:	4ba4      	ldr	r3, [pc, #656]	@ (8000dc8 <TIM21_IRQHandler+0x2c4>)
 8000b36:	2200      	movs	r2, #0
 8000b38:	701a      	strb	r2, [r3, #0]
			TIM2->CNT    = 0;
 8000b3a:	2380      	movs	r3, #128	@ 0x80
 8000b3c:	05db      	lsls	r3, r3, #23
 8000b3e:	2200      	movs	r2, #0
 8000b40:	625a      	str	r2, [r3, #36]	@ 0x24
			USART2_PutstringE("\r\n1. Retiro sin PIN");
 8000b42:	4ba2      	ldr	r3, [pc, #648]	@ (8000dcc <TIM21_IRQHandler+0x2c8>)
 8000b44:	0018      	movs	r0, r3
 8000b46:	f000 f9ed 	bl	8000f24 <USART2_PutstringE>
			USART2_PutstringE("2. Envio remesas");
 8000b4a:	4ba1      	ldr	r3, [pc, #644]	@ (8000dd0 <TIM21_IRQHandler+0x2cc>)
 8000b4c:	0018      	movs	r0, r3
 8000b4e:	f000 f9e9 	bl	8000f24 <USART2_PutstringE>
			USART2_PutstringE("3. Consulta saldo");
 8000b52:	4ba0      	ldr	r3, [pc, #640]	@ (8000dd4 <TIM21_IRQHandler+0x2d0>)
 8000b54:	0018      	movs	r0, r3
 8000b56:	f000 f9e5 	bl	8000f24 <USART2_PutstringE>
		if (current_menu == 0 && received_char_USART2 == '3') {
 8000b5a:	e066      	b.n	8000c2a <TIM21_IRQHandler+0x126>
		}
		else if (current_menu == 1) {
 8000b5c:	4b98      	ldr	r3, [pc, #608]	@ (8000dc0 <TIM21_IRQHandler+0x2bc>)
 8000b5e:	781b      	ldrb	r3, [r3, #0]
 8000b60:	b2db      	uxtb	r3, r3
 8000b62:	2b01      	cmp	r3, #1
 8000b64:	d161      	bne.n	8000c2a <TIM21_IRQHandler+0x126>

			if (received_char_USART2 == '1')
 8000b66:	4b97      	ldr	r3, [pc, #604]	@ (8000dc4 <TIM21_IRQHandler+0x2c0>)
 8000b68:	781b      	ldrb	r3, [r3, #0]
 8000b6a:	b2db      	uxtb	r3, r3
 8000b6c:	2b31      	cmp	r3, #49	@ 0x31
 8000b6e:	d11a      	bne.n	8000ba6 <TIM21_IRQHandler+0xa2>
			{
				GPIOA->ODR |= LED_PIN;    /* LED ON                */
 8000b70:	23a0      	movs	r3, #160	@ 0xa0
 8000b72:	05db      	lsls	r3, r3, #23
 8000b74:	695a      	ldr	r2, [r3, #20]
 8000b76:	23a0      	movs	r3, #160	@ 0xa0
 8000b78:	05db      	lsls	r3, r3, #23
 8000b7a:	2120      	movs	r1, #32
 8000b7c:	430a      	orrs	r2, r1
 8000b7e:	615a      	str	r2, [r3, #20]
				GPIOA->ODR |= (1 << 12);
 8000b80:	23a0      	movs	r3, #160	@ 0xa0
 8000b82:	05db      	lsls	r3, r3, #23
 8000b84:	695a      	ldr	r2, [r3, #20]
 8000b86:	23a0      	movs	r3, #160	@ 0xa0
 8000b88:	05db      	lsls	r3, r3, #23
 8000b8a:	2180      	movs	r1, #128	@ 0x80
 8000b8c:	0149      	lsls	r1, r1, #5
 8000b8e:	430a      	orrs	r2, r1
 8000b90:	615a      	str	r2, [r3, #20]
				led_ticks   = 20000000;         /* 50 × 2 ms = 100 ms    */
 8000b92:	4b91      	ldr	r3, [pc, #580]	@ (8000dd8 <TIM21_IRQHandler+0x2d4>)
 8000b94:	2200      	movs	r2, #0
 8000b96:	701a      	strb	r2, [r3, #0]
				current_menu = 0;         /* volver al menú 0      */
 8000b98:	4b89      	ldr	r3, [pc, #548]	@ (8000dc0 <TIM21_IRQHandler+0x2bc>)
 8000b9a:	2200      	movs	r2, #0
 8000b9c:	701a      	strb	r2, [r3, #0]
				lcd_step     = 0;
 8000b9e:	4b8a      	ldr	r3, [pc, #552]	@ (8000dc8 <TIM21_IRQHandler+0x2c4>)
 8000ba0:	2200      	movs	r2, #0
 8000ba2:	701a      	strb	r2, [r3, #0]
 8000ba4:	e041      	b.n	8000c2a <TIM21_IRQHandler+0x126>
			}

			else if (received_char_USART2 == '2') {
 8000ba6:	4b87      	ldr	r3, [pc, #540]	@ (8000dc4 <TIM21_IRQHandler+0x2c0>)
 8000ba8:	781b      	ldrb	r3, [r3, #0]
 8000baa:	b2db      	uxtb	r3, r3
 8000bac:	2b32      	cmp	r3, #50	@ 0x32
 8000bae:	d11a      	bne.n	8000be6 <TIM21_IRQHandler+0xe2>
				GPIOA->ODR |= LED_PIN;    /* LED ON                */
 8000bb0:	23a0      	movs	r3, #160	@ 0xa0
 8000bb2:	05db      	lsls	r3, r3, #23
 8000bb4:	695a      	ldr	r2, [r3, #20]
 8000bb6:	23a0      	movs	r3, #160	@ 0xa0
 8000bb8:	05db      	lsls	r3, r3, #23
 8000bba:	2120      	movs	r1, #32
 8000bbc:	430a      	orrs	r2, r1
 8000bbe:	615a      	str	r2, [r3, #20]
				GPIOA->ODR |= (1 << 12);
 8000bc0:	23a0      	movs	r3, #160	@ 0xa0
 8000bc2:	05db      	lsls	r3, r3, #23
 8000bc4:	695a      	ldr	r2, [r3, #20]
 8000bc6:	23a0      	movs	r3, #160	@ 0xa0
 8000bc8:	05db      	lsls	r3, r3, #23
 8000bca:	2180      	movs	r1, #128	@ 0x80
 8000bcc:	0149      	lsls	r1, r1, #5
 8000bce:	430a      	orrs	r2, r1
 8000bd0:	615a      	str	r2, [r3, #20]
				led_ticks   = 20000000;         /* 50 × 2 ms = 100 ms    */
 8000bd2:	4b81      	ldr	r3, [pc, #516]	@ (8000dd8 <TIM21_IRQHandler+0x2d4>)
 8000bd4:	2200      	movs	r2, #0
 8000bd6:	701a      	strb	r2, [r3, #0]
				current_menu = 0;         /* volver al menú 0      */
 8000bd8:	4b79      	ldr	r3, [pc, #484]	@ (8000dc0 <TIM21_IRQHandler+0x2bc>)
 8000bda:	2200      	movs	r2, #0
 8000bdc:	701a      	strb	r2, [r3, #0]
				lcd_step     = 0;
 8000bde:	4b7a      	ldr	r3, [pc, #488]	@ (8000dc8 <TIM21_IRQHandler+0x2c4>)
 8000be0:	2200      	movs	r2, #0
 8000be2:	701a      	strb	r2, [r3, #0]
 8000be4:	e021      	b.n	8000c2a <TIM21_IRQHandler+0x126>
			}
			else if (received_char_USART2 == '3'){
 8000be6:	4b77      	ldr	r3, [pc, #476]	@ (8000dc4 <TIM21_IRQHandler+0x2c0>)
 8000be8:	781b      	ldrb	r3, [r3, #0]
 8000bea:	b2db      	uxtb	r3, r3
 8000bec:	2b33      	cmp	r3, #51	@ 0x33
 8000bee:	d11c      	bne.n	8000c2a <TIM21_IRQHandler+0x126>
				GPIOA->ODR |= LED_PIN;    /* LED ON                */
 8000bf0:	23a0      	movs	r3, #160	@ 0xa0
 8000bf2:	05db      	lsls	r3, r3, #23
 8000bf4:	695a      	ldr	r2, [r3, #20]
 8000bf6:	23a0      	movs	r3, #160	@ 0xa0
 8000bf8:	05db      	lsls	r3, r3, #23
 8000bfa:	2120      	movs	r1, #32
 8000bfc:	430a      	orrs	r2, r1
 8000bfe:	615a      	str	r2, [r3, #20]
				GPIOA->ODR |= (1 << 12);
 8000c00:	23a0      	movs	r3, #160	@ 0xa0
 8000c02:	05db      	lsls	r3, r3, #23
 8000c04:	695a      	ldr	r2, [r3, #20]
 8000c06:	23a0      	movs	r3, #160	@ 0xa0
 8000c08:	05db      	lsls	r3, r3, #23
 8000c0a:	2180      	movs	r1, #128	@ 0x80
 8000c0c:	0149      	lsls	r1, r1, #5
 8000c0e:	430a      	orrs	r2, r1
 8000c10:	615a      	str	r2, [r3, #20]
				menu_state = 1;
 8000c12:	4b72      	ldr	r3, [pc, #456]	@ (8000ddc <TIM21_IRQHandler+0x2d8>)
 8000c14:	2201      	movs	r2, #1
 8000c16:	601a      	str	r2, [r3, #0]
				led_ticks   = 2000000;         /* 50 × 2 ms = 100 ms    */
 8000c18:	4b6f      	ldr	r3, [pc, #444]	@ (8000dd8 <TIM21_IRQHandler+0x2d4>)
 8000c1a:	2280      	movs	r2, #128	@ 0x80
 8000c1c:	701a      	strb	r2, [r3, #0]
				current_menu = 0;         /* volver al menú 0      */
 8000c1e:	4b68      	ldr	r3, [pc, #416]	@ (8000dc0 <TIM21_IRQHandler+0x2bc>)
 8000c20:	2200      	movs	r2, #0
 8000c22:	701a      	strb	r2, [r3, #0]
				lcd_step     = 0;
 8000c24:	4b68      	ldr	r3, [pc, #416]	@ (8000dc8 <TIM21_IRQHandler+0x2c4>)
 8000c26:	2200      	movs	r2, #0
 8000c28:	701a      	strb	r2, [r3, #0]

			}
		}
	}

	if (led_ticks) { /* ---------- temporizador LED ---------- */
 8000c2a:	4b6b      	ldr	r3, [pc, #428]	@ (8000dd8 <TIM21_IRQHandler+0x2d4>)
 8000c2c:	781b      	ldrb	r3, [r3, #0]
 8000c2e:	b2db      	uxtb	r3, r3
 8000c30:	2b00      	cmp	r3, #0
 8000c32:	d019      	beq.n	8000c68 <TIM21_IRQHandler+0x164>
		if (--led_ticks == 0)
 8000c34:	4b68      	ldr	r3, [pc, #416]	@ (8000dd8 <TIM21_IRQHandler+0x2d4>)
 8000c36:	781b      	ldrb	r3, [r3, #0]
 8000c38:	b2db      	uxtb	r3, r3
 8000c3a:	3b01      	subs	r3, #1
 8000c3c:	b2db      	uxtb	r3, r3
 8000c3e:	4a66      	ldr	r2, [pc, #408]	@ (8000dd8 <TIM21_IRQHandler+0x2d4>)
 8000c40:	1c19      	adds	r1, r3, #0
 8000c42:	7011      	strb	r1, [r2, #0]
 8000c44:	2b00      	cmp	r3, #0
 8000c46:	d107      	bne.n	8000c58 <TIM21_IRQHandler+0x154>
			GPIOA->ODR &= ~LED_PIN;            /* LED OFF */
 8000c48:	23a0      	movs	r3, #160	@ 0xa0
 8000c4a:	05db      	lsls	r3, r3, #23
 8000c4c:	695a      	ldr	r2, [r3, #20]
 8000c4e:	23a0      	movs	r3, #160	@ 0xa0
 8000c50:	05db      	lsls	r3, r3, #23
 8000c52:	2120      	movs	r1, #32
 8000c54:	438a      	bics	r2, r1
 8000c56:	615a      	str	r2, [r3, #20]
			GPIOA->ODR &= ~(1 << 12);
 8000c58:	23a0      	movs	r3, #160	@ 0xa0
 8000c5a:	05db      	lsls	r3, r3, #23
 8000c5c:	695a      	ldr	r2, [r3, #20]
 8000c5e:	23a0      	movs	r3, #160	@ 0xa0
 8000c60:	05db      	lsls	r3, r3, #23
 8000c62:	495f      	ldr	r1, [pc, #380]	@ (8000de0 <TIM21_IRQHandler+0x2dc>)
 8000c64:	400a      	ands	r2, r1
 8000c66:	615a      	str	r2, [r3, #20]
	}

	if (menu_state == 1) {
 8000c68:	4b5c      	ldr	r3, [pc, #368]	@ (8000ddc <TIM21_IRQHandler+0x2d8>)
 8000c6a:	681b      	ldr	r3, [r3, #0]
 8000c6c:	2b01      	cmp	r3, #1
 8000c6e:	d10f      	bne.n	8000c90 <TIM21_IRQHandler+0x18c>
		menu2_timer++;  // Incrementar el temporizador de Menú 2
 8000c70:	4b5c      	ldr	r3, [pc, #368]	@ (8000de4 <TIM21_IRQHandler+0x2e0>)
 8000c72:	681b      	ldr	r3, [r3, #0]
 8000c74:	1c5a      	adds	r2, r3, #1
 8000c76:	4b5b      	ldr	r3, [pc, #364]	@ (8000de4 <TIM21_IRQHandler+0x2e0>)
 8000c78:	601a      	str	r2, [r3, #0]
		if (menu2_timer >= 3000) {  // 5000 interrupciones = 10 segundos (suponiendo 2ms por interrupción)
 8000c7a:	4b5a      	ldr	r3, [pc, #360]	@ (8000de4 <TIM21_IRQHandler+0x2e0>)
 8000c7c:	681b      	ldr	r3, [r3, #0]
 8000c7e:	4a5a      	ldr	r2, [pc, #360]	@ (8000de8 <TIM21_IRQHandler+0x2e4>)
 8000c80:	4293      	cmp	r3, r2
 8000c82:	dd05      	ble.n	8000c90 <TIM21_IRQHandler+0x18c>
			menu_state = 0;  // Volver a Menú 1 después del tiempo
 8000c84:	4b55      	ldr	r3, [pc, #340]	@ (8000ddc <TIM21_IRQHandler+0x2d8>)
 8000c86:	2200      	movs	r2, #0
 8000c88:	601a      	str	r2, [r3, #0]
			menu2_timer = 0; // Resetear el temporizador
 8000c8a:	4b56      	ldr	r3, [pc, #344]	@ (8000de4 <TIM21_IRQHandler+0x2e0>)
 8000c8c:	2200      	movs	r2, #0
 8000c8e:	601a      	str	r2, [r3, #0]
	}



	// Apagar los displays antes de escribir
	GPIOB->ODR = 0x0000;
 8000c90:	4b56      	ldr	r3, [pc, #344]	@ (8000dec <TIM21_IRQHandler+0x2e8>)
 8000c92:	2200      	movs	r2, #0
 8000c94:	615a      	str	r2, [r3, #20]
	// Mostrar los valores según el menú actual
	switch (menu_state) {
 8000c96:	4b51      	ldr	r3, [pc, #324]	@ (8000ddc <TIM21_IRQHandler+0x2d8>)
 8000c98:	681b      	ldr	r3, [r3, #0]
 8000c9a:	2b00      	cmp	r3, #0
 8000c9c:	d002      	beq.n	8000ca4 <TIM21_IRQHandler+0x1a0>
 8000c9e:	2b01      	cmp	r3, #1
 8000ca0:	d03a      	beq.n	8000d18 <TIM21_IRQHandler+0x214>
 8000ca2:	e073      	b.n	8000d8c <TIM21_IRQHandler+0x288>
		case 0:  // Menú 1
			switch (display_index) {
 8000ca4:	4b52      	ldr	r3, [pc, #328]	@ (8000df0 <TIM21_IRQHandler+0x2ec>)
 8000ca6:	781b      	ldrb	r3, [r3, #0]
 8000ca8:	b2db      	uxtb	r3, r3
 8000caa:	2b05      	cmp	r3, #5
 8000cac:	d82f      	bhi.n	8000d0e <TIM21_IRQHandler+0x20a>
 8000cae:	009a      	lsls	r2, r3, #2
 8000cb0:	4b50      	ldr	r3, [pc, #320]	@ (8000df4 <TIM21_IRQHandler+0x2f0>)
 8000cb2:	18d3      	adds	r3, r2, r3
 8000cb4:	681b      	ldr	r3, [r3, #0]
 8000cb6:	469f      	mov	pc, r3
				case 0:
					GPIOB->ODR |= NUM_0 | (1<<7);  // Número 0 en display 1
 8000cb8:	4b4c      	ldr	r3, [pc, #304]	@ (8000dec <TIM21_IRQHandler+0x2e8>)
 8000cba:	695a      	ldr	r2, [r3, #20]
 8000cbc:	4b4b      	ldr	r3, [pc, #300]	@ (8000dec <TIM21_IRQHandler+0x2e8>)
 8000cbe:	21bf      	movs	r1, #191	@ 0xbf
 8000cc0:	430a      	orrs	r2, r1
 8000cc2:	615a      	str	r2, [r3, #20]
					break;
 8000cc4:	e027      	b.n	8000d16 <TIM21_IRQHandler+0x212>
				case 1:
					GPIOB->ODR |= NUM_0 | (1<<8);  // Número 1 en display 2
 8000cc6:	4b49      	ldr	r3, [pc, #292]	@ (8000dec <TIM21_IRQHandler+0x2e8>)
 8000cc8:	695a      	ldr	r2, [r3, #20]
 8000cca:	4b48      	ldr	r3, [pc, #288]	@ (8000dec <TIM21_IRQHandler+0x2e8>)
 8000ccc:	2140      	movs	r1, #64	@ 0x40
 8000cce:	31ff      	adds	r1, #255	@ 0xff
 8000cd0:	430a      	orrs	r2, r1
 8000cd2:	615a      	str	r2, [r3, #20]
					break;
 8000cd4:	e01f      	b.n	8000d16 <TIM21_IRQHandler+0x212>
				case 2:
					GPIOB->ODR |= NUM_0 | (1<<9);  // Número 2 en display 3
 8000cd6:	4b45      	ldr	r3, [pc, #276]	@ (8000dec <TIM21_IRQHandler+0x2e8>)
 8000cd8:	695a      	ldr	r2, [r3, #20]
 8000cda:	4b44      	ldr	r3, [pc, #272]	@ (8000dec <TIM21_IRQHandler+0x2e8>)
 8000cdc:	4946      	ldr	r1, [pc, #280]	@ (8000df8 <TIM21_IRQHandler+0x2f4>)
 8000cde:	430a      	orrs	r2, r1
 8000ce0:	615a      	str	r2, [r3, #20]
					break;
 8000ce2:	e018      	b.n	8000d16 <TIM21_IRQHandler+0x212>
				case 3:
					GPIOB->ODR |= NUM_0 | (1<<10); // Número 3 en display 4
 8000ce4:	4b41      	ldr	r3, [pc, #260]	@ (8000dec <TIM21_IRQHandler+0x2e8>)
 8000ce6:	695a      	ldr	r2, [r3, #20]
 8000ce8:	4b40      	ldr	r3, [pc, #256]	@ (8000dec <TIM21_IRQHandler+0x2e8>)
 8000cea:	4944      	ldr	r1, [pc, #272]	@ (8000dfc <TIM21_IRQHandler+0x2f8>)
 8000cec:	430a      	orrs	r2, r1
 8000cee:	615a      	str	r2, [r3, #20]
					break;
 8000cf0:	e011      	b.n	8000d16 <TIM21_IRQHandler+0x212>
				case 4:
					GPIOB->ODR |= NUM_0 | (1<<11); // Número 4 en display 5
 8000cf2:	4b3e      	ldr	r3, [pc, #248]	@ (8000dec <TIM21_IRQHandler+0x2e8>)
 8000cf4:	695a      	ldr	r2, [r3, #20]
 8000cf6:	4b3d      	ldr	r3, [pc, #244]	@ (8000dec <TIM21_IRQHandler+0x2e8>)
 8000cf8:	4941      	ldr	r1, [pc, #260]	@ (8000e00 <TIM21_IRQHandler+0x2fc>)
 8000cfa:	430a      	orrs	r2, r1
 8000cfc:	615a      	str	r2, [r3, #20]
					break;
 8000cfe:	e00a      	b.n	8000d16 <TIM21_IRQHandler+0x212>
				case 5:
					GPIOB->ODR |= NUM_0 | (1<<12); // Número 5 en display 6
 8000d00:	4b3a      	ldr	r3, [pc, #232]	@ (8000dec <TIM21_IRQHandler+0x2e8>)
 8000d02:	695a      	ldr	r2, [r3, #20]
 8000d04:	4b39      	ldr	r3, [pc, #228]	@ (8000dec <TIM21_IRQHandler+0x2e8>)
 8000d06:	493f      	ldr	r1, [pc, #252]	@ (8000e04 <TIM21_IRQHandler+0x300>)
 8000d08:	430a      	orrs	r2, r1
 8000d0a:	615a      	str	r2, [r3, #20]
					break;
 8000d0c:	e003      	b.n	8000d16 <TIM21_IRQHandler+0x212>
				default:
					display_index = 0;  // Reiniciar ciclo
 8000d0e:	4b38      	ldr	r3, [pc, #224]	@ (8000df0 <TIM21_IRQHandler+0x2ec>)
 8000d10:	2200      	movs	r2, #0
 8000d12:	701a      	strb	r2, [r3, #0]
					return;
 8000d14:	e04f      	b.n	8000db6 <TIM21_IRQHandler+0x2b2>
			}
			break;
 8000d16:	e039      	b.n	8000d8c <TIM21_IRQHandler+0x288>

		case 1:  // Menú 2
			switch (display_index) {
 8000d18:	4b35      	ldr	r3, [pc, #212]	@ (8000df0 <TIM21_IRQHandler+0x2ec>)
 8000d1a:	781b      	ldrb	r3, [r3, #0]
 8000d1c:	b2db      	uxtb	r3, r3
 8000d1e:	2b05      	cmp	r3, #5
 8000d20:	d82f      	bhi.n	8000d82 <TIM21_IRQHandler+0x27e>
 8000d22:	009a      	lsls	r2, r3, #2
 8000d24:	4b38      	ldr	r3, [pc, #224]	@ (8000e08 <TIM21_IRQHandler+0x304>)
 8000d26:	18d3      	adds	r3, r2, r3
 8000d28:	681b      	ldr	r3, [r3, #0]
 8000d2a:	469f      	mov	pc, r3
				case 0:
					GPIOB->ODR |= NUM_0 | (1<<7);  // Número 6 en display 1
 8000d2c:	4b2f      	ldr	r3, [pc, #188]	@ (8000dec <TIM21_IRQHandler+0x2e8>)
 8000d2e:	695a      	ldr	r2, [r3, #20]
 8000d30:	4b2e      	ldr	r3, [pc, #184]	@ (8000dec <TIM21_IRQHandler+0x2e8>)
 8000d32:	21bf      	movs	r1, #191	@ 0xbf
 8000d34:	430a      	orrs	r2, r1
 8000d36:	615a      	str	r2, [r3, #20]
					break;
 8000d38:	e027      	b.n	8000d8a <TIM21_IRQHandler+0x286>
				case 1:
					GPIOB->ODR |= NUM_0 | (1<<8);  // Número 7 en display 2
 8000d3a:	4b2c      	ldr	r3, [pc, #176]	@ (8000dec <TIM21_IRQHandler+0x2e8>)
 8000d3c:	695a      	ldr	r2, [r3, #20]
 8000d3e:	4b2b      	ldr	r3, [pc, #172]	@ (8000dec <TIM21_IRQHandler+0x2e8>)
 8000d40:	2140      	movs	r1, #64	@ 0x40
 8000d42:	31ff      	adds	r1, #255	@ 0xff
 8000d44:	430a      	orrs	r2, r1
 8000d46:	615a      	str	r2, [r3, #20]
					break;
 8000d48:	e01f      	b.n	8000d8a <TIM21_IRQHandler+0x286>
				case 2:
					GPIOB->ODR |= NUM_3 | (1<<9);  // Número 8 en display 3
 8000d4a:	4b28      	ldr	r3, [pc, #160]	@ (8000dec <TIM21_IRQHandler+0x2e8>)
 8000d4c:	695a      	ldr	r2, [r3, #20]
 8000d4e:	4b27      	ldr	r3, [pc, #156]	@ (8000dec <TIM21_IRQHandler+0x2e8>)
 8000d50:	492e      	ldr	r1, [pc, #184]	@ (8000e0c <TIM21_IRQHandler+0x308>)
 8000d52:	430a      	orrs	r2, r1
 8000d54:	615a      	str	r2, [r3, #20]
					break;
 8000d56:	e018      	b.n	8000d8a <TIM21_IRQHandler+0x286>
				case 3:
					GPIOB->ODR |= NUM_0 | (1<<10); // Número 9 en display 4
 8000d58:	4b24      	ldr	r3, [pc, #144]	@ (8000dec <TIM21_IRQHandler+0x2e8>)
 8000d5a:	695a      	ldr	r2, [r3, #20]
 8000d5c:	4b23      	ldr	r3, [pc, #140]	@ (8000dec <TIM21_IRQHandler+0x2e8>)
 8000d5e:	4927      	ldr	r1, [pc, #156]	@ (8000dfc <TIM21_IRQHandler+0x2f8>)
 8000d60:	430a      	orrs	r2, r1
 8000d62:	615a      	str	r2, [r3, #20]
					break;
 8000d64:	e011      	b.n	8000d8a <TIM21_IRQHandler+0x286>
				case 4:
					GPIOB->ODR |= NUM_5 | (1<<11); // Número 0 en display 5
 8000d66:	4b21      	ldr	r3, [pc, #132]	@ (8000dec <TIM21_IRQHandler+0x2e8>)
 8000d68:	695a      	ldr	r2, [r3, #20]
 8000d6a:	4b20      	ldr	r3, [pc, #128]	@ (8000dec <TIM21_IRQHandler+0x2e8>)
 8000d6c:	4928      	ldr	r1, [pc, #160]	@ (8000e10 <TIM21_IRQHandler+0x30c>)
 8000d6e:	430a      	orrs	r2, r1
 8000d70:	615a      	str	r2, [r3, #20]
					break;
 8000d72:	e00a      	b.n	8000d8a <TIM21_IRQHandler+0x286>
				case 5:
					GPIOB->ODR |= NUM_0 | (1<<12); // Número 1 en display 6
 8000d74:	4b1d      	ldr	r3, [pc, #116]	@ (8000dec <TIM21_IRQHandler+0x2e8>)
 8000d76:	695a      	ldr	r2, [r3, #20]
 8000d78:	4b1c      	ldr	r3, [pc, #112]	@ (8000dec <TIM21_IRQHandler+0x2e8>)
 8000d7a:	4922      	ldr	r1, [pc, #136]	@ (8000e04 <TIM21_IRQHandler+0x300>)
 8000d7c:	430a      	orrs	r2, r1
 8000d7e:	615a      	str	r2, [r3, #20]
					break;
 8000d80:	e003      	b.n	8000d8a <TIM21_IRQHandler+0x286>
				default:
					display_index = 0;  // Reiniciar ciclo
 8000d82:	4b1b      	ldr	r3, [pc, #108]	@ (8000df0 <TIM21_IRQHandler+0x2ec>)
 8000d84:	2200      	movs	r2, #0
 8000d86:	701a      	strb	r2, [r3, #0]
					return;
 8000d88:	e015      	b.n	8000db6 <TIM21_IRQHandler+0x2b2>
			}
			break;
 8000d8a:	46c0      	nop			@ (mov r8, r8)
	}

	// Incrementar el índice de displays
	display_index++;
 8000d8c:	4b18      	ldr	r3, [pc, #96]	@ (8000df0 <TIM21_IRQHandler+0x2ec>)
 8000d8e:	781b      	ldrb	r3, [r3, #0]
 8000d90:	b2db      	uxtb	r3, r3
 8000d92:	3301      	adds	r3, #1
 8000d94:	b2da      	uxtb	r2, r3
 8000d96:	4b16      	ldr	r3, [pc, #88]	@ (8000df0 <TIM21_IRQHandler+0x2ec>)
 8000d98:	701a      	strb	r2, [r3, #0]
	if (display_index > 5) {
 8000d9a:	4b15      	ldr	r3, [pc, #84]	@ (8000df0 <TIM21_IRQHandler+0x2ec>)
 8000d9c:	781b      	ldrb	r3, [r3, #0]
 8000d9e:	b2db      	uxtb	r3, r3
 8000da0:	2b05      	cmp	r3, #5
 8000da2:	d902      	bls.n	8000daa <TIM21_IRQHandler+0x2a6>
		display_index = 0; // Ciclar
 8000da4:	4b12      	ldr	r3, [pc, #72]	@ (8000df0 <TIM21_IRQHandler+0x2ec>)
 8000da6:	2200      	movs	r2, #0
 8000da8:	701a      	strb	r2, [r3, #0]
	}

	TIM21->SR &= ~(1<<0);  // Clear UIF flag
 8000daa:	4b1a      	ldr	r3, [pc, #104]	@ (8000e14 <TIM21_IRQHandler+0x310>)
 8000dac:	691a      	ldr	r2, [r3, #16]
 8000dae:	4b19      	ldr	r3, [pc, #100]	@ (8000e14 <TIM21_IRQHandler+0x310>)
 8000db0:	2101      	movs	r1, #1
 8000db2:	438a      	bics	r2, r1
 8000db4:	611a      	str	r2, [r3, #16]
}
 8000db6:	46bd      	mov	sp, r7
 8000db8:	bd80      	pop	{r7, pc}
 8000dba:	46c0      	nop			@ (mov r8, r8)
 8000dbc:	2000001f 	.word	0x2000001f
 8000dc0:	20000039 	.word	0x20000039
 8000dc4:	2000001d 	.word	0x2000001d
 8000dc8:	20000038 	.word	0x20000038
 8000dcc:	080014bc 	.word	0x080014bc
 8000dd0:	080014d0 	.word	0x080014d0
 8000dd4:	080014e4 	.word	0x080014e4
 8000dd8:	2000003a 	.word	0x2000003a
 8000ddc:	20000030 	.word	0x20000030
 8000de0:	ffffefff 	.word	0xffffefff
 8000de4:	20000034 	.word	0x20000034
 8000de8:	00000bb7 	.word	0x00000bb7
 8000dec:	50000400 	.word	0x50000400
 8000df0:	2000002d 	.word	0x2000002d
 8000df4:	080016cc 	.word	0x080016cc
 8000df8:	0000023f 	.word	0x0000023f
 8000dfc:	0000043f 	.word	0x0000043f
 8000e00:	0000083f 	.word	0x0000083f
 8000e04:	0000103f 	.word	0x0000103f
 8000e08:	080016e4 	.word	0x080016e4
 8000e0c:	0000024f 	.word	0x0000024f
 8000e10:	0000086d 	.word	0x0000086d
 8000e14:	40010800 	.word	0x40010800

08000e18 <USART2Init>:


//Inicialización de USART2
void USART2Init(void) {
 8000e18:	b580      	push	{r7, lr}
 8000e1a:	af00      	add	r7, sp, #0
	RCC->APB1ENR |= (1<<17); //USART CLK ENABLE
 8000e1c:	4b26      	ldr	r3, [pc, #152]	@ (8000eb8 <USART2Init+0xa0>)
 8000e1e:	6b9a      	ldr	r2, [r3, #56]	@ 0x38
 8000e20:	4b25      	ldr	r3, [pc, #148]	@ (8000eb8 <USART2Init+0xa0>)
 8000e22:	2180      	movs	r1, #128	@ 0x80
 8000e24:	0289      	lsls	r1, r1, #10
 8000e26:	430a      	orrs	r2, r1
 8000e28:	639a      	str	r2, [r3, #56]	@ 0x38
	RCC->IOPENR |= (1<<0); //GPIOA CLK ENABLE
 8000e2a:	4b23      	ldr	r3, [pc, #140]	@ (8000eb8 <USART2Init+0xa0>)
 8000e2c:	6ada      	ldr	r2, [r3, #44]	@ 0x2c
 8000e2e:	4b22      	ldr	r3, [pc, #136]	@ (8000eb8 <USART2Init+0xa0>)
 8000e30:	2101      	movs	r1, #1
 8000e32:	430a      	orrs	r2, r1
 8000e34:	62da      	str	r2, [r3, #44]	@ 0x2c
	//ALTERNATE FUNCTION PA2(TX) Y PA3(RX)
	GPIOA->MODER &= ~(1<<4);  //PA2 as AF
 8000e36:	23a0      	movs	r3, #160	@ 0xa0
 8000e38:	05db      	lsls	r3, r3, #23
 8000e3a:	681a      	ldr	r2, [r3, #0]
 8000e3c:	23a0      	movs	r3, #160	@ 0xa0
 8000e3e:	05db      	lsls	r3, r3, #23
 8000e40:	2110      	movs	r1, #16
 8000e42:	438a      	bics	r2, r1
 8000e44:	601a      	str	r2, [r3, #0]
	GPIOA->MODER &= ~(1<<6);  //PA3 as AF
 8000e46:	23a0      	movs	r3, #160	@ 0xa0
 8000e48:	05db      	lsls	r3, r3, #23
 8000e4a:	681a      	ldr	r2, [r3, #0]
 8000e4c:	23a0      	movs	r3, #160	@ 0xa0
 8000e4e:	05db      	lsls	r3, r3, #23
 8000e50:	2140      	movs	r1, #64	@ 0x40
 8000e52:	438a      	bics	r2, r1
 8000e54:	601a      	str	r2, [r3, #0]
	GPIOA->AFR[0] |= (1<<10); //PA2 AS  AF4
 8000e56:	23a0      	movs	r3, #160	@ 0xa0
 8000e58:	05db      	lsls	r3, r3, #23
 8000e5a:	6a1a      	ldr	r2, [r3, #32]
 8000e5c:	23a0      	movs	r3, #160	@ 0xa0
 8000e5e:	05db      	lsls	r3, r3, #23
 8000e60:	2180      	movs	r1, #128	@ 0x80
 8000e62:	00c9      	lsls	r1, r1, #3
 8000e64:	430a      	orrs	r2, r1
 8000e66:	621a      	str	r2, [r3, #32]
	GPIOA->AFR[0] |= (1<<14); //PA3 AS AF4
 8000e68:	23a0      	movs	r3, #160	@ 0xa0
 8000e6a:	05db      	lsls	r3, r3, #23
 8000e6c:	6a1a      	ldr	r2, [r3, #32]
 8000e6e:	23a0      	movs	r3, #160	@ 0xa0
 8000e70:	05db      	lsls	r3, r3, #23
 8000e72:	2180      	movs	r1, #128	@ 0x80
 8000e74:	01c9      	lsls	r1, r1, #7
 8000e76:	430a      	orrs	r2, r1
 8000e78:	621a      	str	r2, [r3, #32]
	USART2->BRR = 139;        //USART2 @115200 bps with 16Mhz clock HSi
 8000e7a:	4b10      	ldr	r3, [pc, #64]	@ (8000ebc <USART2Init+0xa4>)
 8000e7c:	228b      	movs	r2, #139	@ 0x8b
 8000e7e:	60da      	str	r2, [r3, #12]
	USART2->CR1 = 0;          // Apagar USART2 primero
 8000e80:	4b0e      	ldr	r3, [pc, #56]	@ (8000ebc <USART2Init+0xa4>)
 8000e82:	2200      	movs	r2, #0
 8000e84:	601a      	str	r2, [r3, #0]
	USART2->CR1 |= (1<<2) | (1<<3); // Habilitar RX y TX
 8000e86:	4b0d      	ldr	r3, [pc, #52]	@ (8000ebc <USART2Init+0xa4>)
 8000e88:	681a      	ldr	r2, [r3, #0]
 8000e8a:	4b0c      	ldr	r3, [pc, #48]	@ (8000ebc <USART2Init+0xa4>)
 8000e8c:	210c      	movs	r1, #12
 8000e8e:	430a      	orrs	r2, r1
 8000e90:	601a      	str	r2, [r3, #0]
	USART2->CR1 |= (1<<5);          // Habilitar interrupción por RXNE
 8000e92:	4b0a      	ldr	r3, [pc, #40]	@ (8000ebc <USART2Init+0xa4>)
 8000e94:	681a      	ldr	r2, [r3, #0]
 8000e96:	4b09      	ldr	r3, [pc, #36]	@ (8000ebc <USART2Init+0xa4>)
 8000e98:	2120      	movs	r1, #32
 8000e9a:	430a      	orrs	r2, r1
 8000e9c:	601a      	str	r2, [r3, #0]
	USART2->CR1 |= (1<<0);          // Habilitar USART2
 8000e9e:	4b07      	ldr	r3, [pc, #28]	@ (8000ebc <USART2Init+0xa4>)
 8000ea0:	681a      	ldr	r2, [r3, #0]
 8000ea2:	4b06      	ldr	r3, [pc, #24]	@ (8000ebc <USART2Init+0xa4>)
 8000ea4:	2101      	movs	r1, #1
 8000ea6:	430a      	orrs	r2, r1
 8000ea8:	601a      	str	r2, [r3, #0]
	NVIC_EnableIRQ(USART2_IRQn);    // Habilitar interrupción en NVIC*/
 8000eaa:	201c      	movs	r0, #28
 8000eac:	f7ff f92c 	bl	8000108 <__NVIC_EnableIRQ>
}
 8000eb0:	46c0      	nop			@ (mov r8, r8)
 8000eb2:	46bd      	mov	sp, r7
 8000eb4:	bd80      	pop	{r7, pc}
 8000eb6:	46c0      	nop			@ (mov r8, r8)
 8000eb8:	40021000 	.word	0x40021000
 8000ebc:	40004400 	.word	0x40004400

08000ec0 <USART2_write>:

void USART2_write (uint8_t ch)
{
 8000ec0:	b580      	push	{r7, lr}
 8000ec2:	b082      	sub	sp, #8
 8000ec4:	af00      	add	r7, sp, #0
 8000ec6:	0002      	movs	r2, r0
 8000ec8:	1dfb      	adds	r3, r7, #7
 8000eca:	701a      	strb	r2, [r3, #0]
	while (!(USART2->ISR & 0X0080)){}
 8000ecc:	46c0      	nop			@ (mov r8, r8)
 8000ece:	4b06      	ldr	r3, [pc, #24]	@ (8000ee8 <USART2_write+0x28>)
 8000ed0:	69db      	ldr	r3, [r3, #28]
 8000ed2:	2280      	movs	r2, #128	@ 0x80
 8000ed4:	4013      	ands	r3, r2
 8000ed6:	d0fa      	beq.n	8000ece <USART2_write+0xe>
	USART2->TDR = ch;
 8000ed8:	4b03      	ldr	r3, [pc, #12]	@ (8000ee8 <USART2_write+0x28>)
 8000eda:	1dfa      	adds	r2, r7, #7
 8000edc:	7812      	ldrb	r2, [r2, #0]
 8000ede:	629a      	str	r2, [r3, #40]	@ 0x28
}
 8000ee0:	46c0      	nop			@ (mov r8, r8)
 8000ee2:	46bd      	mov	sp, r7
 8000ee4:	b002      	add	sp, #8
 8000ee6:	bd80      	pop	{r7, pc}
 8000ee8:	40004400 	.word	0x40004400

08000eec <USART2_VALID>:

void USART2_VALID(char* command) {
 8000eec:	b580      	push	{r7, lr}
 8000eee:	b082      	sub	sp, #8
 8000ef0:	af00      	add	r7, sp, #0
 8000ef2:	6078      	str	r0, [r7, #4]
    while (*command != 0) {
 8000ef4:	e00b      	b.n	8000f0e <USART2_VALID+0x22>
        while (!(USART2->ISR & USART_ISR_TXE));
 8000ef6:	46c0      	nop			@ (mov r8, r8)
 8000ef8:	4b09      	ldr	r3, [pc, #36]	@ (8000f20 <USART2_VALID+0x34>)
 8000efa:	69db      	ldr	r3, [r3, #28]
 8000efc:	2280      	movs	r2, #128	@ 0x80
 8000efe:	4013      	ands	r3, r2
 8000f00:	d0fa      	beq.n	8000ef8 <USART2_VALID+0xc>
        USART2->TDR = *command++;
 8000f02:	687b      	ldr	r3, [r7, #4]
 8000f04:	1c5a      	adds	r2, r3, #1
 8000f06:	607a      	str	r2, [r7, #4]
 8000f08:	781a      	ldrb	r2, [r3, #0]
 8000f0a:	4b05      	ldr	r3, [pc, #20]	@ (8000f20 <USART2_VALID+0x34>)
 8000f0c:	629a      	str	r2, [r3, #40]	@ 0x28
    while (*command != 0) {
 8000f0e:	687b      	ldr	r3, [r7, #4]
 8000f10:	781b      	ldrb	r3, [r3, #0]
 8000f12:	2b00      	cmp	r3, #0
 8000f14:	d1ef      	bne.n	8000ef6 <USART2_VALID+0xa>
    }
}
 8000f16:	46c0      	nop			@ (mov r8, r8)
 8000f18:	46c0      	nop			@ (mov r8, r8)
 8000f1a:	46bd      	mov	sp, r7
 8000f1c:	b002      	add	sp, #8
 8000f1e:	bd80      	pop	{r7, pc}
 8000f20:	40004400 	.word	0x40004400

08000f24 <USART2_PutstringE>:
		USART2_write(*stringptr);
		stringptr++;
	}
}

void USART2_PutstringE(uint8_t* stringptr) {
 8000f24:	b580      	push	{r7, lr}
 8000f26:	b082      	sub	sp, #8
 8000f28:	af00      	add	r7, sp, #0
 8000f2a:	6078      	str	r0, [r7, #4]
	while(*stringptr != 0x00) {
 8000f2c:	e007      	b.n	8000f3e <USART2_PutstringE+0x1a>
		USART2_write(*stringptr);
 8000f2e:	687b      	ldr	r3, [r7, #4]
 8000f30:	781b      	ldrb	r3, [r3, #0]
 8000f32:	0018      	movs	r0, r3
 8000f34:	f7ff ffc4 	bl	8000ec0 <USART2_write>
		stringptr++;
 8000f38:	687b      	ldr	r3, [r7, #4]
 8000f3a:	3301      	adds	r3, #1
 8000f3c:	607b      	str	r3, [r7, #4]
	while(*stringptr != 0x00) {
 8000f3e:	687b      	ldr	r3, [r7, #4]
 8000f40:	781b      	ldrb	r3, [r3, #0]
 8000f42:	2b00      	cmp	r3, #0
 8000f44:	d1f3      	bne.n	8000f2e <USART2_PutstringE+0xa>
	}
	USART2_write(0x0A);
 8000f46:	200a      	movs	r0, #10
 8000f48:	f7ff ffba 	bl	8000ec0 <USART2_write>
	USART2_write(0x0D);
 8000f4c:	200d      	movs	r0, #13
 8000f4e:	f7ff ffb7 	bl	8000ec0 <USART2_write>
}
 8000f52:	46c0      	nop			@ (mov r8, r8)
 8000f54:	46bd      	mov	sp, r7
 8000f56:	b002      	add	sp, #8
 8000f58:	bd80      	pop	{r7, pc}
	...

08000f5c <USART2_IRQHandler>:


void USART2_IRQHandler(void) {
 8000f5c:	b580      	push	{r7, lr}
 8000f5e:	af00      	add	r7, sp, #0
    if (USART2->ISR & (1<<5)) { // RXNE = 1
 8000f60:	4b07      	ldr	r3, [pc, #28]	@ (8000f80 <USART2_IRQHandler+0x24>)
 8000f62:	69db      	ldr	r3, [r3, #28]
 8000f64:	2220      	movs	r2, #32
 8000f66:	4013      	ands	r3, r2
 8000f68:	d007      	beq.n	8000f7a <USART2_IRQHandler+0x1e>
    	received_char_USART2 = USART2->RDR; // Leer valor de entrada
 8000f6a:	4b05      	ldr	r3, [pc, #20]	@ (8000f80 <USART2_IRQHandler+0x24>)
 8000f6c:	6a5b      	ldr	r3, [r3, #36]	@ 0x24
 8000f6e:	b2da      	uxtb	r2, r3
 8000f70:	4b04      	ldr	r3, [pc, #16]	@ (8000f84 <USART2_IRQHandler+0x28>)
 8000f72:	701a      	strb	r2, [r3, #0]
    	flag_received_USART2 = 1;           // Se activa la bandera de valor  recibido
 8000f74:	4b04      	ldr	r3, [pc, #16]	@ (8000f88 <USART2_IRQHandler+0x2c>)
 8000f76:	2201      	movs	r2, #1
 8000f78:	701a      	strb	r2, [r3, #0]
    }
}
 8000f7a:	46c0      	nop			@ (mov r8, r8)
 8000f7c:	46bd      	mov	sp, r7
 8000f7e:	bd80      	pop	{r7, pc}
 8000f80:	40004400 	.word	0x40004400
 8000f84:	2000001d 	.word	0x2000001d
 8000f88:	2000001f 	.word	0x2000001f

08000f8c <USART1_Init>:

void USART1_Init(void) {
 8000f8c:	b580      	push	{r7, lr}
 8000f8e:	af00      	add	r7, sp, #0
    RCC->APB2ENR |= (1 << 14);
 8000f90:	4b25      	ldr	r3, [pc, #148]	@ (8001028 <USART1_Init+0x9c>)
 8000f92:	6b5a      	ldr	r2, [r3, #52]	@ 0x34
 8000f94:	4b24      	ldr	r3, [pc, #144]	@ (8001028 <USART1_Init+0x9c>)
 8000f96:	2180      	movs	r1, #128	@ 0x80
 8000f98:	01c9      	lsls	r1, r1, #7
 8000f9a:	430a      	orrs	r2, r1
 8000f9c:	635a      	str	r2, [r3, #52]	@ 0x34
    RCC->IOPENR |= (1 << 0);
 8000f9e:	4b22      	ldr	r3, [pc, #136]	@ (8001028 <USART1_Init+0x9c>)
 8000fa0:	6ada      	ldr	r2, [r3, #44]	@ 0x2c
 8000fa2:	4b21      	ldr	r3, [pc, #132]	@ (8001028 <USART1_Init+0x9c>)
 8000fa4:	2101      	movs	r1, #1
 8000fa6:	430a      	orrs	r2, r1
 8000fa8:	62da      	str	r2, [r3, #44]	@ 0x2c
    GPIOA->MODER &= ~(1 << 18);
 8000faa:	23a0      	movs	r3, #160	@ 0xa0
 8000fac:	05db      	lsls	r3, r3, #23
 8000fae:	681a      	ldr	r2, [r3, #0]
 8000fb0:	23a0      	movs	r3, #160	@ 0xa0
 8000fb2:	05db      	lsls	r3, r3, #23
 8000fb4:	491d      	ldr	r1, [pc, #116]	@ (800102c <USART1_Init+0xa0>)
 8000fb6:	400a      	ands	r2, r1
 8000fb8:	601a      	str	r2, [r3, #0]
    GPIOA->MODER &= ~(1 << 20);
 8000fba:	23a0      	movs	r3, #160	@ 0xa0
 8000fbc:	05db      	lsls	r3, r3, #23
 8000fbe:	681a      	ldr	r2, [r3, #0]
 8000fc0:	23a0      	movs	r3, #160	@ 0xa0
 8000fc2:	05db      	lsls	r3, r3, #23
 8000fc4:	491a      	ldr	r1, [pc, #104]	@ (8001030 <USART1_Init+0xa4>)
 8000fc6:	400a      	ands	r2, r1
 8000fc8:	601a      	str	r2, [r3, #0]
    GPIOA->AFR[1] |= (1 << 6);
 8000fca:	23a0      	movs	r3, #160	@ 0xa0
 8000fcc:	05db      	lsls	r3, r3, #23
 8000fce:	6a5a      	ldr	r2, [r3, #36]	@ 0x24
 8000fd0:	23a0      	movs	r3, #160	@ 0xa0
 8000fd2:	05db      	lsls	r3, r3, #23
 8000fd4:	2140      	movs	r1, #64	@ 0x40
 8000fd6:	430a      	orrs	r2, r1
 8000fd8:	625a      	str	r2, [r3, #36]	@ 0x24
    GPIOA->AFR[1] |= (1 << 10);
 8000fda:	23a0      	movs	r3, #160	@ 0xa0
 8000fdc:	05db      	lsls	r3, r3, #23
 8000fde:	6a5a      	ldr	r2, [r3, #36]	@ 0x24
 8000fe0:	23a0      	movs	r3, #160	@ 0xa0
 8000fe2:	05db      	lsls	r3, r3, #23
 8000fe4:	2180      	movs	r1, #128	@ 0x80
 8000fe6:	00c9      	lsls	r1, r1, #3
 8000fe8:	430a      	orrs	r2, r1
 8000fea:	625a      	str	r2, [r3, #36]	@ 0x24
    USART1->BRR = 139;
 8000fec:	4b11      	ldr	r3, [pc, #68]	@ (8001034 <USART1_Init+0xa8>)
 8000fee:	228b      	movs	r2, #139	@ 0x8b
 8000ff0:	60da      	str	r2, [r3, #12]
    USART1->CR1 = USART_CR1_TE | USART_CR1_UE;   // Habilitar TX y USART1
 8000ff2:	4b10      	ldr	r3, [pc, #64]	@ (8001034 <USART1_Init+0xa8>)
 8000ff4:	2209      	movs	r2, #9
 8000ff6:	601a      	str	r2, [r3, #0]
    USART1->CR1 |= (1 << 2) | (1 << 3); // Habilitar RX y TX
 8000ff8:	4b0e      	ldr	r3, [pc, #56]	@ (8001034 <USART1_Init+0xa8>)
 8000ffa:	681a      	ldr	r2, [r3, #0]
 8000ffc:	4b0d      	ldr	r3, [pc, #52]	@ (8001034 <USART1_Init+0xa8>)
 8000ffe:	210c      	movs	r1, #12
 8001000:	430a      	orrs	r2, r1
 8001002:	601a      	str	r2, [r3, #0]
    USART1->CR1 |= (1 << 5);          // Habilitar interrupción por RXNE
 8001004:	4b0b      	ldr	r3, [pc, #44]	@ (8001034 <USART1_Init+0xa8>)
 8001006:	681a      	ldr	r2, [r3, #0]
 8001008:	4b0a      	ldr	r3, [pc, #40]	@ (8001034 <USART1_Init+0xa8>)
 800100a:	2120      	movs	r1, #32
 800100c:	430a      	orrs	r2, r1
 800100e:	601a      	str	r2, [r3, #0]
    USART1->CR1 |= (1 << 0);          // Habilitar USART1
 8001010:	4b08      	ldr	r3, [pc, #32]	@ (8001034 <USART1_Init+0xa8>)
 8001012:	681a      	ldr	r2, [r3, #0]
 8001014:	4b07      	ldr	r3, [pc, #28]	@ (8001034 <USART1_Init+0xa8>)
 8001016:	2101      	movs	r1, #1
 8001018:	430a      	orrs	r2, r1
 800101a:	601a      	str	r2, [r3, #0]
    NVIC_EnableIRQ(USART1_IRQn);      // Habilitar la interrupción para USART1
 800101c:	201b      	movs	r0, #27
 800101e:	f7ff f873 	bl	8000108 <__NVIC_EnableIRQ>
}
 8001022:	46c0      	nop			@ (mov r8, r8)
 8001024:	46bd      	mov	sp, r7
 8001026:	bd80      	pop	{r7, pc}
 8001028:	40021000 	.word	0x40021000
 800102c:	fffbffff 	.word	0xfffbffff
 8001030:	ffefffff 	.word	0xffefffff
 8001034:	40013800 	.word	0x40013800

08001038 <USART1_Write>:

void USART1_Write(char* command) {
 8001038:	b580      	push	{r7, lr}
 800103a:	b082      	sub	sp, #8
 800103c:	af00      	add	r7, sp, #0
 800103e:	6078      	str	r0, [r7, #4]
    while (*command != 0) {
 8001040:	e00b      	b.n	800105a <USART1_Write+0x22>
        while (!(USART1->ISR & USART_ISR_TXE));
 8001042:	46c0      	nop			@ (mov r8, r8)
 8001044:	4b09      	ldr	r3, [pc, #36]	@ (800106c <USART1_Write+0x34>)
 8001046:	69db      	ldr	r3, [r3, #28]
 8001048:	2280      	movs	r2, #128	@ 0x80
 800104a:	4013      	ands	r3, r2
 800104c:	d0fa      	beq.n	8001044 <USART1_Write+0xc>
        USART1->TDR = *command++;
 800104e:	687b      	ldr	r3, [r7, #4]
 8001050:	1c5a      	adds	r2, r3, #1
 8001052:	607a      	str	r2, [r7, #4]
 8001054:	781a      	ldrb	r2, [r3, #0]
 8001056:	4b05      	ldr	r3, [pc, #20]	@ (800106c <USART1_Write+0x34>)
 8001058:	629a      	str	r2, [r3, #40]	@ 0x28
    while (*command != 0) {
 800105a:	687b      	ldr	r3, [r7, #4]
 800105c:	781b      	ldrb	r3, [r3, #0]
 800105e:	2b00      	cmp	r3, #0
 8001060:	d1ef      	bne.n	8001042 <USART1_Write+0xa>
    }
}
 8001062:	46c0      	nop			@ (mov r8, r8)
 8001064:	46c0      	nop			@ (mov r8, r8)
 8001066:	46bd      	mov	sp, r7
 8001068:	b002      	add	sp, #8
 800106a:	bd80      	pop	{r7, pc}
 800106c:	40013800 	.word	0x40013800

08001070 <USART1_IRQHandler>:

void USART1_IRQHandler(void) {
 8001070:	b580      	push	{r7, lr}
 8001072:	af00      	add	r7, sp, #0
	if((USART1->ISR & USART_ISR_RXNE) == USART_ISR_RXNE)
 8001074:	4bc2      	ldr	r3, [pc, #776]	@ (8001380 <USART1_IRQHandler+0x310>)
 8001076:	69db      	ldr	r3, [r3, #28]
 8001078:	2220      	movs	r2, #32
 800107a:	4013      	ands	r3, r2
 800107c:	2b20      	cmp	r3, #32
 800107e:	d107      	bne.n	8001090 <USART1_IRQHandler+0x20>
	 {
		received_char_USART1 = (uint8_t)(USART1->RDR);
 8001080:	4bbf      	ldr	r3, [pc, #764]	@ (8001380 <USART1_IRQHandler+0x310>)
 8001082:	6a5b      	ldr	r3, [r3, #36]	@ 0x24
 8001084:	b2da      	uxtb	r2, r3
 8001086:	4bbf      	ldr	r3, [pc, #764]	@ (8001384 <USART1_IRQHandler+0x314>)
 8001088:	701a      	strb	r2, [r3, #0]
		flag_received_USART1 = 1;
 800108a:	4bbf      	ldr	r3, [pc, #764]	@ (8001388 <USART1_IRQHandler+0x318>)
 800108c:	2201      	movs	r2, #1
 800108e:	701a      	strb	r2, [r3, #0]
	 }

	if (flag_received_USART1) {  // Si se ha recibido un carácter desde USART1
 8001090:	4bbd      	ldr	r3, [pc, #756]	@ (8001388 <USART1_IRQHandler+0x318>)
 8001092:	781b      	ldrb	r3, [r3, #0]
 8001094:	b2db      	uxtb	r3, r3
 8001096:	2b00      	cmp	r3, #0
 8001098:	d100      	bne.n	800109c <USART1_IRQHandler+0x2c>
 800109a:	e16d      	b.n	8001378 <USART1_IRQHandler+0x308>
	            flag_received_USART1 = 0;  // Limpiar la bandera
 800109c:	4bba      	ldr	r3, [pc, #744]	@ (8001388 <USART1_IRQHandler+0x318>)
 800109e:	2200      	movs	r2, #0
 80010a0:	701a      	strb	r2, [r3, #0]
	            // Solo enviar a USART2 si es un carácter válido
	            if (received_char_USART1 != 0) {
 80010a2:	4bb8      	ldr	r3, [pc, #736]	@ (8001384 <USART1_IRQHandler+0x314>)
 80010a4:	781b      	ldrb	r3, [r3, #0]
 80010a6:	b2db      	uxtb	r3, r3
 80010a8:	2b00      	cmp	r3, #0
 80010aa:	d100      	bne.n	80010ae <USART1_IRQHandler+0x3e>
 80010ac:	e164      	b.n	8001378 <USART1_IRQHandler+0x308>
	            	if (received_char_USART1 == 'F') {
 80010ae:	4bb5      	ldr	r3, [pc, #724]	@ (8001384 <USART1_IRQHandler+0x314>)
 80010b0:	781b      	ldrb	r3, [r3, #0]
 80010b2:	b2db      	uxtb	r3, r3
 80010b4:	2b46      	cmp	r3, #70	@ 0x46
 80010b6:	d10a      	bne.n	80010ce <USART1_IRQHandler+0x5e>
	            		waiting_for_data0 = 1;
 80010b8:	4bb4      	ldr	r3, [pc, #720]	@ (800138c <USART1_IRQHandler+0x31c>)
 80010ba:	2201      	movs	r2, #1
 80010bc:	701a      	strb	r2, [r3, #0]
	            		USART2_VALID(&received_char_USART1);
 80010be:	4bb1      	ldr	r3, [pc, #708]	@ (8001384 <USART1_IRQHandler+0x314>)
 80010c0:	0018      	movs	r0, r3
 80010c2:	f7ff ff13 	bl	8000eec <USART2_VALID>
	            		received_char_USART1 = 0;
 80010c6:	4baf      	ldr	r3, [pc, #700]	@ (8001384 <USART1_IRQHandler+0x314>)
 80010c8:	2200      	movs	r2, #0
 80010ca:	701a      	strb	r2, [r3, #0]
						received_char_USART1 = 0;
						current_menu = 0;
	            	}
	            }
	        }
}
 80010cc:	e154      	b.n	8001378 <USART1_IRQHandler+0x308>
	            	else if (waiting_for_data0 && received_char_USART1 == 'E')
 80010ce:	4baf      	ldr	r3, [pc, #700]	@ (800138c <USART1_IRQHandler+0x31c>)
 80010d0:	781b      	ldrb	r3, [r3, #0]
 80010d2:	b2db      	uxtb	r3, r3
 80010d4:	2b00      	cmp	r3, #0
 80010d6:	d012      	beq.n	80010fe <USART1_IRQHandler+0x8e>
 80010d8:	4baa      	ldr	r3, [pc, #680]	@ (8001384 <USART1_IRQHandler+0x314>)
 80010da:	781b      	ldrb	r3, [r3, #0]
 80010dc:	b2db      	uxtb	r3, r3
 80010de:	2b45      	cmp	r3, #69	@ 0x45
 80010e0:	d10d      	bne.n	80010fe <USART1_IRQHandler+0x8e>
	            		waiting_for_data0 = 0;
 80010e2:	4baa      	ldr	r3, [pc, #680]	@ (800138c <USART1_IRQHandler+0x31c>)
 80010e4:	2200      	movs	r2, #0
 80010e6:	701a      	strb	r2, [r3, #0]
	            		waiting_for_data1 = 1;
 80010e8:	4ba9      	ldr	r3, [pc, #676]	@ (8001390 <USART1_IRQHandler+0x320>)
 80010ea:	2201      	movs	r2, #1
 80010ec:	701a      	strb	r2, [r3, #0]
	            		USART2_VALID(&received_char_USART1);
 80010ee:	4ba5      	ldr	r3, [pc, #660]	@ (8001384 <USART1_IRQHandler+0x314>)
 80010f0:	0018      	movs	r0, r3
 80010f2:	f7ff fefb 	bl	8000eec <USART2_VALID>
	            		received_char_USART1 = 0;
 80010f6:	4ba3      	ldr	r3, [pc, #652]	@ (8001384 <USART1_IRQHandler+0x314>)
 80010f8:	2200      	movs	r2, #0
 80010fa:	701a      	strb	r2, [r3, #0]
 80010fc:	e13c      	b.n	8001378 <USART1_IRQHandler+0x308>
	            	else if (waiting_for_data1 && received_char_USART1 == 'R')
 80010fe:	4ba4      	ldr	r3, [pc, #656]	@ (8001390 <USART1_IRQHandler+0x320>)
 8001100:	781b      	ldrb	r3, [r3, #0]
 8001102:	b2db      	uxtb	r3, r3
 8001104:	2b00      	cmp	r3, #0
 8001106:	d012      	beq.n	800112e <USART1_IRQHandler+0xbe>
 8001108:	4b9e      	ldr	r3, [pc, #632]	@ (8001384 <USART1_IRQHandler+0x314>)
 800110a:	781b      	ldrb	r3, [r3, #0]
 800110c:	b2db      	uxtb	r3, r3
 800110e:	2b52      	cmp	r3, #82	@ 0x52
 8001110:	d10d      	bne.n	800112e <USART1_IRQHandler+0xbe>
						waiting_for_data1 = 0;
 8001112:	4b9f      	ldr	r3, [pc, #636]	@ (8001390 <USART1_IRQHandler+0x320>)
 8001114:	2200      	movs	r2, #0
 8001116:	701a      	strb	r2, [r3, #0]
						USART2_VALID(&received_char_USART1);
 8001118:	4b9a      	ldr	r3, [pc, #616]	@ (8001384 <USART1_IRQHandler+0x314>)
 800111a:	0018      	movs	r0, r3
 800111c:	f7ff fee6 	bl	8000eec <USART2_VALID>
						received_char_USART1 = 0;
 8001120:	4b98      	ldr	r3, [pc, #608]	@ (8001384 <USART1_IRQHandler+0x314>)
 8001122:	2200      	movs	r2, #0
 8001124:	701a      	strb	r2, [r3, #0]
						waiting_for_data2 = 1;
 8001126:	4b9b      	ldr	r3, [pc, #620]	@ (8001394 <USART1_IRQHandler+0x324>)
 8001128:	2201      	movs	r2, #1
 800112a:	701a      	strb	r2, [r3, #0]
 800112c:	e124      	b.n	8001378 <USART1_IRQHandler+0x308>
	            	else if (waiting_for_data2 && received_char_USART1 == '.')
 800112e:	4b99      	ldr	r3, [pc, #612]	@ (8001394 <USART1_IRQHandler+0x324>)
 8001130:	781b      	ldrb	r3, [r3, #0]
 8001132:	b2db      	uxtb	r3, r3
 8001134:	2b00      	cmp	r3, #0
 8001136:	d012      	beq.n	800115e <USART1_IRQHandler+0xee>
 8001138:	4b92      	ldr	r3, [pc, #584]	@ (8001384 <USART1_IRQHandler+0x314>)
 800113a:	781b      	ldrb	r3, [r3, #0]
 800113c:	b2db      	uxtb	r3, r3
 800113e:	2b2e      	cmp	r3, #46	@ 0x2e
 8001140:	d10d      	bne.n	800115e <USART1_IRQHandler+0xee>
						waiting_for_data2 = 0;
 8001142:	4b94      	ldr	r3, [pc, #592]	@ (8001394 <USART1_IRQHandler+0x324>)
 8001144:	2200      	movs	r2, #0
 8001146:	701a      	strb	r2, [r3, #0]
						USART2_VALID(&received_char_USART1);
 8001148:	4b8e      	ldr	r3, [pc, #568]	@ (8001384 <USART1_IRQHandler+0x314>)
 800114a:	0018      	movs	r0, r3
 800114c:	f7ff fece 	bl	8000eec <USART2_VALID>
						received_char_USART1 = 0;
 8001150:	4b8c      	ldr	r3, [pc, #560]	@ (8001384 <USART1_IRQHandler+0x314>)
 8001152:	2200      	movs	r2, #0
 8001154:	701a      	strb	r2, [r3, #0]
						waiting_for_data3 = 1;
 8001156:	4b90      	ldr	r3, [pc, #576]	@ (8001398 <USART1_IRQHandler+0x328>)
 8001158:	2201      	movs	r2, #1
 800115a:	701a      	strb	r2, [r3, #0]
 800115c:	e10c      	b.n	8001378 <USART1_IRQHandler+0x308>
	            	else if (waiting_for_data3 && received_char_USART1 == '0')
 800115e:	4b8e      	ldr	r3, [pc, #568]	@ (8001398 <USART1_IRQHandler+0x328>)
 8001160:	781b      	ldrb	r3, [r3, #0]
 8001162:	b2db      	uxtb	r3, r3
 8001164:	2b00      	cmp	r3, #0
 8001166:	d012      	beq.n	800118e <USART1_IRQHandler+0x11e>
 8001168:	4b86      	ldr	r3, [pc, #536]	@ (8001384 <USART1_IRQHandler+0x314>)
 800116a:	781b      	ldrb	r3, [r3, #0]
 800116c:	b2db      	uxtb	r3, r3
 800116e:	2b30      	cmp	r3, #48	@ 0x30
 8001170:	d10d      	bne.n	800118e <USART1_IRQHandler+0x11e>
						waiting_for_data3 = 0;
 8001172:	4b89      	ldr	r3, [pc, #548]	@ (8001398 <USART1_IRQHandler+0x328>)
 8001174:	2200      	movs	r2, #0
 8001176:	701a      	strb	r2, [r3, #0]
						USART2_VALID(&received_char_USART1);
 8001178:	4b82      	ldr	r3, [pc, #520]	@ (8001384 <USART1_IRQHandler+0x314>)
 800117a:	0018      	movs	r0, r3
 800117c:	f7ff feb6 	bl	8000eec <USART2_VALID>
						received_char_USART1 = 0;
 8001180:	4b80      	ldr	r3, [pc, #512]	@ (8001384 <USART1_IRQHandler+0x314>)
 8001182:	2200      	movs	r2, #0
 8001184:	701a      	strb	r2, [r3, #0]
						waiting_for_data4 = 1;
 8001186:	4b85      	ldr	r3, [pc, #532]	@ (800139c <USART1_IRQHandler+0x32c>)
 8001188:	2201      	movs	r2, #1
 800118a:	701a      	strb	r2, [r3, #0]
 800118c:	e0f4      	b.n	8001378 <USART1_IRQHandler+0x308>
	            	else if (waiting_for_data4 && received_char_USART1 == '1')
 800118e:	4b83      	ldr	r3, [pc, #524]	@ (800139c <USART1_IRQHandler+0x32c>)
 8001190:	781b      	ldrb	r3, [r3, #0]
 8001192:	b2db      	uxtb	r3, r3
 8001194:	2b00      	cmp	r3, #0
 8001196:	d012      	beq.n	80011be <USART1_IRQHandler+0x14e>
 8001198:	4b7a      	ldr	r3, [pc, #488]	@ (8001384 <USART1_IRQHandler+0x314>)
 800119a:	781b      	ldrb	r3, [r3, #0]
 800119c:	b2db      	uxtb	r3, r3
 800119e:	2b31      	cmp	r3, #49	@ 0x31
 80011a0:	d10d      	bne.n	80011be <USART1_IRQHandler+0x14e>
						waiting_for_data4 = 0;
 80011a2:	4b7e      	ldr	r3, [pc, #504]	@ (800139c <USART1_IRQHandler+0x32c>)
 80011a4:	2200      	movs	r2, #0
 80011a6:	701a      	strb	r2, [r3, #0]
						USART2_VALID(&received_char_USART1);
 80011a8:	4b76      	ldr	r3, [pc, #472]	@ (8001384 <USART1_IRQHandler+0x314>)
 80011aa:	0018      	movs	r0, r3
 80011ac:	f7ff fe9e 	bl	8000eec <USART2_VALID>
						received_char_USART1 = 0;
 80011b0:	4b74      	ldr	r3, [pc, #464]	@ (8001384 <USART1_IRQHandler+0x314>)
 80011b2:	2200      	movs	r2, #0
 80011b4:	701a      	strb	r2, [r3, #0]
						waiting_for_data5 = 1;
 80011b6:	4b7a      	ldr	r3, [pc, #488]	@ (80013a0 <USART1_IRQHandler+0x330>)
 80011b8:	2201      	movs	r2, #1
 80011ba:	701a      	strb	r2, [r3, #0]
 80011bc:	e0dc      	b.n	8001378 <USART1_IRQHandler+0x308>
	            	else if (waiting_for_data5 && received_char_USART1 == '0')
 80011be:	4b78      	ldr	r3, [pc, #480]	@ (80013a0 <USART1_IRQHandler+0x330>)
 80011c0:	781b      	ldrb	r3, [r3, #0]
 80011c2:	b2db      	uxtb	r3, r3
 80011c4:	2b00      	cmp	r3, #0
 80011c6:	d012      	beq.n	80011ee <USART1_IRQHandler+0x17e>
 80011c8:	4b6e      	ldr	r3, [pc, #440]	@ (8001384 <USART1_IRQHandler+0x314>)
 80011ca:	781b      	ldrb	r3, [r3, #0]
 80011cc:	b2db      	uxtb	r3, r3
 80011ce:	2b30      	cmp	r3, #48	@ 0x30
 80011d0:	d10d      	bne.n	80011ee <USART1_IRQHandler+0x17e>
						waiting_for_data5 = 0;
 80011d2:	4b73      	ldr	r3, [pc, #460]	@ (80013a0 <USART1_IRQHandler+0x330>)
 80011d4:	2200      	movs	r2, #0
 80011d6:	701a      	strb	r2, [r3, #0]
						USART2_VALID(&received_char_USART1);
 80011d8:	4b6a      	ldr	r3, [pc, #424]	@ (8001384 <USART1_IRQHandler+0x314>)
 80011da:	0018      	movs	r0, r3
 80011dc:	f7ff fe86 	bl	8000eec <USART2_VALID>
						received_char_USART1 = 0;
 80011e0:	4b68      	ldr	r3, [pc, #416]	@ (8001384 <USART1_IRQHandler+0x314>)
 80011e2:	2200      	movs	r2, #0
 80011e4:	701a      	strb	r2, [r3, #0]
						waiting_for_data6 = 1;
 80011e6:	4b6f      	ldr	r3, [pc, #444]	@ (80013a4 <USART1_IRQHandler+0x334>)
 80011e8:	2201      	movs	r2, #1
 80011ea:	701a      	strb	r2, [r3, #0]
 80011ec:	e0c4      	b.n	8001378 <USART1_IRQHandler+0x308>
	            	else if (waiting_for_data6 && received_char_USART1 == '2')
 80011ee:	4b6d      	ldr	r3, [pc, #436]	@ (80013a4 <USART1_IRQHandler+0x334>)
 80011f0:	781b      	ldrb	r3, [r3, #0]
 80011f2:	b2db      	uxtb	r3, r3
 80011f4:	2b00      	cmp	r3, #0
 80011f6:	d015      	beq.n	8001224 <USART1_IRQHandler+0x1b4>
 80011f8:	4b62      	ldr	r3, [pc, #392]	@ (8001384 <USART1_IRQHandler+0x314>)
 80011fa:	781b      	ldrb	r3, [r3, #0]
 80011fc:	b2db      	uxtb	r3, r3
 80011fe:	2b32      	cmp	r3, #50	@ 0x32
 8001200:	d110      	bne.n	8001224 <USART1_IRQHandler+0x1b4>
						waiting_for_data6 = 0;
 8001202:	4b68      	ldr	r3, [pc, #416]	@ (80013a4 <USART1_IRQHandler+0x334>)
 8001204:	2200      	movs	r2, #0
 8001206:	701a      	strb	r2, [r3, #0]
						USART2_VALID(&received_char_USART1);
 8001208:	4b5e      	ldr	r3, [pc, #376]	@ (8001384 <USART1_IRQHandler+0x314>)
 800120a:	0018      	movs	r0, r3
 800120c:	f7ff fe6e 	bl	8000eec <USART2_VALID>
						received_char_USART1 = 0;
 8001210:	4b5c      	ldr	r3, [pc, #368]	@ (8001384 <USART1_IRQHandler+0x314>)
 8001212:	2200      	movs	r2, #0
 8001214:	701a      	strb	r2, [r3, #0]
						waiting_for_data7 = 1;
 8001216:	4b64      	ldr	r3, [pc, #400]	@ (80013a8 <USART1_IRQHandler+0x338>)
 8001218:	2201      	movs	r2, #1
 800121a:	701a      	strb	r2, [r3, #0]
						current_menu = 2;
 800121c:	4b63      	ldr	r3, [pc, #396]	@ (80013ac <USART1_IRQHandler+0x33c>)
 800121e:	2202      	movs	r2, #2
 8001220:	701a      	strb	r2, [r3, #0]
 8001222:	e0a9      	b.n	8001378 <USART1_IRQHandler+0x308>
	            	else if (waiting_for_data7 && received_char_USART1 == 'Q')
 8001224:	4b60      	ldr	r3, [pc, #384]	@ (80013a8 <USART1_IRQHandler+0x338>)
 8001226:	781b      	ldrb	r3, [r3, #0]
 8001228:	b2db      	uxtb	r3, r3
 800122a:	2b00      	cmp	r3, #0
 800122c:	d012      	beq.n	8001254 <USART1_IRQHandler+0x1e4>
 800122e:	4b55      	ldr	r3, [pc, #340]	@ (8001384 <USART1_IRQHandler+0x314>)
 8001230:	781b      	ldrb	r3, [r3, #0]
 8001232:	b2db      	uxtb	r3, r3
 8001234:	2b51      	cmp	r3, #81	@ 0x51
 8001236:	d10d      	bne.n	8001254 <USART1_IRQHandler+0x1e4>
						waiting_for_data7 = 0;
 8001238:	4b5b      	ldr	r3, [pc, #364]	@ (80013a8 <USART1_IRQHandler+0x338>)
 800123a:	2200      	movs	r2, #0
 800123c:	701a      	strb	r2, [r3, #0]
						USART2_VALID(&received_char_USART1);
 800123e:	4b51      	ldr	r3, [pc, #324]	@ (8001384 <USART1_IRQHandler+0x314>)
 8001240:	0018      	movs	r0, r3
 8001242:	f7ff fe53 	bl	8000eec <USART2_VALID>
						received_char_USART1 = 0;
 8001246:	4b4f      	ldr	r3, [pc, #316]	@ (8001384 <USART1_IRQHandler+0x314>)
 8001248:	2200      	movs	r2, #0
 800124a:	701a      	strb	r2, [r3, #0]
						waiting_for_data8 = 1;
 800124c:	4b58      	ldr	r3, [pc, #352]	@ (80013b0 <USART1_IRQHandler+0x340>)
 800124e:	2201      	movs	r2, #1
 8001250:	701a      	strb	r2, [r3, #0]
 8001252:	e091      	b.n	8001378 <USART1_IRQHandler+0x308>
	            	else if (waiting_for_data8 && (received_char_USART1 == '1' |received_char_USART1 == '2' | received_char_USART1 == '3')) {  // Si recibimos el valor '1'
 8001254:	4b56      	ldr	r3, [pc, #344]	@ (80013b0 <USART1_IRQHandler+0x340>)
 8001256:	781b      	ldrb	r3, [r3, #0]
 8001258:	b2db      	uxtb	r3, r3
 800125a:	2b00      	cmp	r3, #0
 800125c:	d044      	beq.n	80012e8 <USART1_IRQHandler+0x278>
 800125e:	4b49      	ldr	r3, [pc, #292]	@ (8001384 <USART1_IRQHandler+0x314>)
 8001260:	781b      	ldrb	r3, [r3, #0]
 8001262:	b2db      	uxtb	r3, r3
 8001264:	3b31      	subs	r3, #49	@ 0x31
 8001266:	425a      	negs	r2, r3
 8001268:	4153      	adcs	r3, r2
 800126a:	b2da      	uxtb	r2, r3
 800126c:	4b45      	ldr	r3, [pc, #276]	@ (8001384 <USART1_IRQHandler+0x314>)
 800126e:	781b      	ldrb	r3, [r3, #0]
 8001270:	b2db      	uxtb	r3, r3
 8001272:	3b32      	subs	r3, #50	@ 0x32
 8001274:	4259      	negs	r1, r3
 8001276:	414b      	adcs	r3, r1
 8001278:	b2db      	uxtb	r3, r3
 800127a:	4313      	orrs	r3, r2
 800127c:	b2db      	uxtb	r3, r3
 800127e:	001a      	movs	r2, r3
 8001280:	4b40      	ldr	r3, [pc, #256]	@ (8001384 <USART1_IRQHandler+0x314>)
 8001282:	781b      	ldrb	r3, [r3, #0]
 8001284:	b2db      	uxtb	r3, r3
 8001286:	3b33      	subs	r3, #51	@ 0x33
 8001288:	4259      	negs	r1, r3
 800128a:	414b      	adcs	r3, r1
 800128c:	b2db      	uxtb	r3, r3
 800128e:	4313      	orrs	r3, r2
 8001290:	d02a      	beq.n	80012e8 <USART1_IRQHandler+0x278>
	            		waiting_for_data8 = 0;  // Terminamos de esperar
 8001292:	4b47      	ldr	r3, [pc, #284]	@ (80013b0 <USART1_IRQHandler+0x340>)
 8001294:	2200      	movs	r2, #0
 8001296:	701a      	strb	r2, [r3, #0]
	            		if(received_char_USART1 == '1'){
 8001298:	4b3a      	ldr	r3, [pc, #232]	@ (8001384 <USART1_IRQHandler+0x314>)
 800129a:	781b      	ldrb	r3, [r3, #0]
 800129c:	b2db      	uxtb	r3, r3
 800129e:	2b31      	cmp	r3, #49	@ 0x31
 80012a0:	d106      	bne.n	80012b0 <USART1_IRQHandler+0x240>
							USART2_VALID(&received_char_USART1);  // Procesamos el valor '1'
 80012a2:	4b38      	ldr	r3, [pc, #224]	@ (8001384 <USART1_IRQHandler+0x314>)
 80012a4:	0018      	movs	r0, r3
 80012a6:	f7ff fe21 	bl	8000eec <USART2_VALID>
							waiting_for_data9 = 1;  // Esperamos el siguiente carácter '0' para completar el 10
 80012aa:	4b42      	ldr	r3, [pc, #264]	@ (80013b4 <USART1_IRQHandler+0x344>)
 80012ac:	2201      	movs	r2, #1
 80012ae:	701a      	strb	r2, [r3, #0]
	            		if(received_char_USART1 == '2'){
 80012b0:	4b34      	ldr	r3, [pc, #208]	@ (8001384 <USART1_IRQHandler+0x314>)
 80012b2:	781b      	ldrb	r3, [r3, #0]
 80012b4:	b2db      	uxtb	r3, r3
 80012b6:	2b32      	cmp	r3, #50	@ 0x32
 80012b8:	d106      	bne.n	80012c8 <USART1_IRQHandler+0x258>
							USART2_VALID(&received_char_USART1);  // Procesamos el valor '1'
 80012ba:	4b32      	ldr	r3, [pc, #200]	@ (8001384 <USART1_IRQHandler+0x314>)
 80012bc:	0018      	movs	r0, r3
 80012be:	f7ff fe15 	bl	8000eec <USART2_VALID>
							waiting_for_data10 = 1;  // Esperamos el siguiente carácter '0' para completar el 10
 80012c2:	4b3d      	ldr	r3, [pc, #244]	@ (80013b8 <USART1_IRQHandler+0x348>)
 80012c4:	2201      	movs	r2, #1
 80012c6:	701a      	strb	r2, [r3, #0]
	            		if(received_char_USART1 == '3'){
 80012c8:	4b2e      	ldr	r3, [pc, #184]	@ (8001384 <USART1_IRQHandler+0x314>)
 80012ca:	781b      	ldrb	r3, [r3, #0]
 80012cc:	b2db      	uxtb	r3, r3
 80012ce:	2b33      	cmp	r3, #51	@ 0x33
 80012d0:	d106      	bne.n	80012e0 <USART1_IRQHandler+0x270>
							USART2_VALID(&received_char_USART1);  // Procesamos el valor '1'
 80012d2:	4b2c      	ldr	r3, [pc, #176]	@ (8001384 <USART1_IRQHandler+0x314>)
 80012d4:	0018      	movs	r0, r3
 80012d6:	f7ff fe09 	bl	8000eec <USART2_VALID>
							waiting_for_data11 = 1;  // Esperamos el siguiente carácter '0' para completar el 10
 80012da:	4b38      	ldr	r3, [pc, #224]	@ (80013bc <USART1_IRQHandler+0x34c>)
 80012dc:	2201      	movs	r2, #1
 80012de:	701a      	strb	r2, [r3, #0]
	            		received_char_USART1 = 0;
 80012e0:	4b28      	ldr	r3, [pc, #160]	@ (8001384 <USART1_IRQHandler+0x314>)
 80012e2:	2200      	movs	r2, #0
 80012e4:	701a      	strb	r2, [r3, #0]
 80012e6:	e047      	b.n	8001378 <USART1_IRQHandler+0x308>
	            	else if (waiting_for_data9 && received_char_USART1 == '0') {  // Si recibimos el valor '0' después de '1'
 80012e8:	4b32      	ldr	r3, [pc, #200]	@ (80013b4 <USART1_IRQHandler+0x344>)
 80012ea:	781b      	ldrb	r3, [r3, #0]
 80012ec:	b2db      	uxtb	r3, r3
 80012ee:	2b00      	cmp	r3, #0
 80012f0:	d012      	beq.n	8001318 <USART1_IRQHandler+0x2a8>
 80012f2:	4b24      	ldr	r3, [pc, #144]	@ (8001384 <USART1_IRQHandler+0x314>)
 80012f4:	781b      	ldrb	r3, [r3, #0]
 80012f6:	b2db      	uxtb	r3, r3
 80012f8:	2b30      	cmp	r3, #48	@ 0x30
 80012fa:	d10d      	bne.n	8001318 <USART1_IRQHandler+0x2a8>
	            	    waiting_for_data9 = 0;
 80012fc:	4b2d      	ldr	r3, [pc, #180]	@ (80013b4 <USART1_IRQHandler+0x344>)
 80012fe:	2200      	movs	r2, #0
 8001300:	701a      	strb	r2, [r3, #0]
	            	    USART2_VALID(&received_char_USART1);  // Procesamos el valor '0' para formar 10
 8001302:	4b20      	ldr	r3, [pc, #128]	@ (8001384 <USART1_IRQHandler+0x314>)
 8001304:	0018      	movs	r0, r3
 8001306:	f7ff fdf1 	bl	8000eec <USART2_VALID>
	            	    received_char_USART1 = 0;
 800130a:	4b1e      	ldr	r3, [pc, #120]	@ (8001384 <USART1_IRQHandler+0x314>)
 800130c:	2200      	movs	r2, #0
 800130e:	701a      	strb	r2, [r3, #0]
	            	    current_menu = 0;
 8001310:	4b26      	ldr	r3, [pc, #152]	@ (80013ac <USART1_IRQHandler+0x33c>)
 8001312:	2200      	movs	r2, #0
 8001314:	701a      	strb	r2, [r3, #0]
 8001316:	e02f      	b.n	8001378 <USART1_IRQHandler+0x308>
	            	else if (waiting_for_data10 && received_char_USART1 == '0') {  // Si recibimos el valor '2'
 8001318:	4b27      	ldr	r3, [pc, #156]	@ (80013b8 <USART1_IRQHandler+0x348>)
 800131a:	781b      	ldrb	r3, [r3, #0]
 800131c:	b2db      	uxtb	r3, r3
 800131e:	2b00      	cmp	r3, #0
 8001320:	d012      	beq.n	8001348 <USART1_IRQHandler+0x2d8>
 8001322:	4b18      	ldr	r3, [pc, #96]	@ (8001384 <USART1_IRQHandler+0x314>)
 8001324:	781b      	ldrb	r3, [r3, #0]
 8001326:	b2db      	uxtb	r3, r3
 8001328:	2b30      	cmp	r3, #48	@ 0x30
 800132a:	d10d      	bne.n	8001348 <USART1_IRQHandler+0x2d8>
	            	    waiting_for_data10 = 0;
 800132c:	4b22      	ldr	r3, [pc, #136]	@ (80013b8 <USART1_IRQHandler+0x348>)
 800132e:	2200      	movs	r2, #0
 8001330:	701a      	strb	r2, [r3, #0]
	            	    USART2_VALID(&received_char_USART1);  // Procesamos el valor '2'
 8001332:	4b14      	ldr	r3, [pc, #80]	@ (8001384 <USART1_IRQHandler+0x314>)
 8001334:	0018      	movs	r0, r3
 8001336:	f7ff fdd9 	bl	8000eec <USART2_VALID>
	            	    received_char_USART1 = 0;
 800133a:	4b12      	ldr	r3, [pc, #72]	@ (8001384 <USART1_IRQHandler+0x314>)
 800133c:	2200      	movs	r2, #0
 800133e:	701a      	strb	r2, [r3, #0]
						current_menu = 0;
 8001340:	4b1a      	ldr	r3, [pc, #104]	@ (80013ac <USART1_IRQHandler+0x33c>)
 8001342:	2200      	movs	r2, #0
 8001344:	701a      	strb	r2, [r3, #0]
 8001346:	e017      	b.n	8001378 <USART1_IRQHandler+0x308>
	            	else if (waiting_for_data11 && received_char_USART1 == '0') {  // Si recibimos el valor '0' después de '2'
 8001348:	4b1c      	ldr	r3, [pc, #112]	@ (80013bc <USART1_IRQHandler+0x34c>)
 800134a:	781b      	ldrb	r3, [r3, #0]
 800134c:	b2db      	uxtb	r3, r3
 800134e:	2b00      	cmp	r3, #0
 8001350:	d012      	beq.n	8001378 <USART1_IRQHandler+0x308>
 8001352:	4b0c      	ldr	r3, [pc, #48]	@ (8001384 <USART1_IRQHandler+0x314>)
 8001354:	781b      	ldrb	r3, [r3, #0]
 8001356:	b2db      	uxtb	r3, r3
 8001358:	2b30      	cmp	r3, #48	@ 0x30
 800135a:	d10d      	bne.n	8001378 <USART1_IRQHandler+0x308>
	            		waiting_for_data11 = 0;
 800135c:	4b17      	ldr	r3, [pc, #92]	@ (80013bc <USART1_IRQHandler+0x34c>)
 800135e:	2200      	movs	r2, #0
 8001360:	701a      	strb	r2, [r3, #0]
						USART2_VALID(&received_char_USART1);  // Procesamos el valor '2'
 8001362:	4b08      	ldr	r3, [pc, #32]	@ (8001384 <USART1_IRQHandler+0x314>)
 8001364:	0018      	movs	r0, r3
 8001366:	f7ff fdc1 	bl	8000eec <USART2_VALID>
						received_char_USART1 = 0;
 800136a:	4b06      	ldr	r3, [pc, #24]	@ (8001384 <USART1_IRQHandler+0x314>)
 800136c:	2200      	movs	r2, #0
 800136e:	701a      	strb	r2, [r3, #0]
						current_menu = 0;
 8001370:	4b0e      	ldr	r3, [pc, #56]	@ (80013ac <USART1_IRQHandler+0x33c>)
 8001372:	2200      	movs	r2, #0
 8001374:	701a      	strb	r2, [r3, #0]
}
 8001376:	e7ff      	b.n	8001378 <USART1_IRQHandler+0x308>
 8001378:	46c0      	nop			@ (mov r8, r8)
 800137a:	46bd      	mov	sp, r7
 800137c:	bd80      	pop	{r7, pc}
 800137e:	46c0      	nop			@ (mov r8, r8)
 8001380:	40013800 	.word	0x40013800
 8001384:	2000001c 	.word	0x2000001c
 8001388:	2000001e 	.word	0x2000001e
 800138c:	20000020 	.word	0x20000020
 8001390:	20000021 	.word	0x20000021
 8001394:	20000022 	.word	0x20000022
 8001398:	20000023 	.word	0x20000023
 800139c:	20000024 	.word	0x20000024
 80013a0:	20000025 	.word	0x20000025
 80013a4:	20000026 	.word	0x20000026
 80013a8:	20000027 	.word	0x20000027
 80013ac:	20000039 	.word	0x20000039
 80013b0:	20000028 	.word	0x20000028
 80013b4:	20000029 	.word	0x20000029
 80013b8:	2000002a 	.word	0x2000002a
 80013bc:	2000002b 	.word	0x2000002b

080013c0 <configureGSMForSMS>:

void configureGSMForSMS(void) { // Solo ejecutar la configuración una vez
 80013c0:	b580      	push	{r7, lr}
 80013c2:	b082      	sub	sp, #8
 80013c4:	af00      	add	r7, sp, #0
    if (flag_configured == 0) {
 80013c6:	4b0d      	ldr	r3, [pc, #52]	@ (80013fc <configureGSMForSMS+0x3c>)
 80013c8:	781b      	ldrb	r3, [r3, #0]
 80013ca:	b2db      	uxtb	r3, r3
 80013cc:	2b00      	cmp	r3, #0
 80013ce:	d110      	bne.n	80013f2 <configureGSMForSMS+0x32>
        USART1_Write("AT+CMGF=1");
 80013d0:	4b0b      	ldr	r3, [pc, #44]	@ (8001400 <configureGSMForSMS+0x40>)
 80013d2:	0018      	movs	r0, r3
 80013d4:	f7ff fe30 	bl	8001038 <USART1_Write>
        for (volatile int i = 0; i < 10000; i++);
 80013d8:	2300      	movs	r3, #0
 80013da:	607b      	str	r3, [r7, #4]
 80013dc:	e002      	b.n	80013e4 <configureGSMForSMS+0x24>
 80013de:	687b      	ldr	r3, [r7, #4]
 80013e0:	3301      	adds	r3, #1
 80013e2:	607b      	str	r3, [r7, #4]
 80013e4:	687b      	ldr	r3, [r7, #4]
 80013e6:	4a07      	ldr	r2, [pc, #28]	@ (8001404 <configureGSMForSMS+0x44>)
 80013e8:	4293      	cmp	r3, r2
 80013ea:	ddf8      	ble.n	80013de <configureGSMForSMS+0x1e>
        flag_configured = 1;
 80013ec:	4b03      	ldr	r3, [pc, #12]	@ (80013fc <configureGSMForSMS+0x3c>)
 80013ee:	2201      	movs	r2, #1
 80013f0:	701a      	strb	r2, [r3, #0]
    }
}
 80013f2:	46c0      	nop			@ (mov r8, r8)
 80013f4:	46bd      	mov	sp, r7
 80013f6:	b002      	add	sp, #8
 80013f8:	bd80      	pop	{r7, pc}
 80013fa:	46c0      	nop			@ (mov r8, r8)
 80013fc:	2000002c 	.word	0x2000002c
 8001400:	080014f8 	.word	0x080014f8
 8001404:	0000270f 	.word	0x0000270f

08001408 <Reset_Handler>:

  .section .text.Reset_Handler
  .weak Reset_Handler
  .type Reset_Handler, %function
Reset_Handler:
  ldr   r0, =_estack
 8001408:	480d      	ldr	r0, [pc, #52]	@ (8001440 <LoopForever+0x2>)
  mov   sp, r0          /* set stack pointer */
 800140a:	4685      	mov	sp, r0
/* Call the clock system initialization function.*/
  bl  SystemInit
 800140c:	e000      	b.n	8001410 <Reset_Handler+0x8>
 800140e:	bf00      	nop

/* Copy the data segment initializers from flash to SRAM */
  ldr r0, =_sdata
 8001410:	480c      	ldr	r0, [pc, #48]	@ (8001444 <LoopForever+0x6>)
  ldr r1, =_edata
 8001412:	490d      	ldr	r1, [pc, #52]	@ (8001448 <LoopForever+0xa>)
  ldr r2, =_sidata
 8001414:	4a0d      	ldr	r2, [pc, #52]	@ (800144c <LoopForever+0xe>)
  movs r3, #0
 8001416:	2300      	movs	r3, #0
  b LoopCopyDataInit
 8001418:	e002      	b.n	8001420 <LoopCopyDataInit>

0800141a <CopyDataInit>:

CopyDataInit:
  ldr r4, [r2, r3]
 800141a:	58d4      	ldr	r4, [r2, r3]
  str r4, [r0, r3]
 800141c:	50c4      	str	r4, [r0, r3]
  adds r3, r3, #4
 800141e:	3304      	adds	r3, #4

08001420 <LoopCopyDataInit>:

LoopCopyDataInit:
  adds r4, r0, r3
 8001420:	18c4      	adds	r4, r0, r3
  cmp r4, r1
 8001422:	428c      	cmp	r4, r1
  bcc CopyDataInit
 8001424:	d3f9      	bcc.n	800141a <CopyDataInit>

/* Zero fill the bss segment. */
  ldr r2, =_sbss
 8001426:	4a0a      	ldr	r2, [pc, #40]	@ (8001450 <LoopForever+0x12>)
  ldr r4, =_ebss
 8001428:	4c0a      	ldr	r4, [pc, #40]	@ (8001454 <LoopForever+0x16>)
  movs r3, #0
 800142a:	2300      	movs	r3, #0
  b LoopFillZerobss
 800142c:	e001      	b.n	8001432 <LoopFillZerobss>

0800142e <FillZerobss>:

FillZerobss:
  str  r3, [r2]
 800142e:	6013      	str	r3, [r2, #0]
  adds r2, r2, #4
 8001430:	3204      	adds	r2, #4

08001432 <LoopFillZerobss>:

LoopFillZerobss:
  cmp r2, r4
 8001432:	42a2      	cmp	r2, r4
  bcc FillZerobss
 8001434:	d3fb      	bcc.n	800142e <FillZerobss>

/* Call static constructors */
  bl __libc_init_array
 8001436:	f000 f811 	bl	800145c <__libc_init_array>
/* Call the application's entry point.*/
  bl main
 800143a:	f7fe feed 	bl	8000218 <main>

0800143e <LoopForever>:

LoopForever:
  b LoopForever
 800143e:	e7fe      	b.n	800143e <LoopForever>
  ldr   r0, =_estack
 8001440:	20002000 	.word	0x20002000
  ldr r0, =_sdata
 8001444:	20000000 	.word	0x20000000
  ldr r1, =_edata
 8001448:	20000000 	.word	0x20000000
  ldr r2, =_sidata
 800144c:	08001704 	.word	0x08001704
  ldr r2, =_sbss
 8001450:	20000000 	.word	0x20000000
  ldr r4, =_ebss
 8001454:	2000003c 	.word	0x2000003c

08001458 <ADC_COMP_IRQHandler>:
 * @retval : None
*/
  .section .text.Default_Handler,"ax",%progbits
Default_Handler:
Infinite_Loop:
  b Infinite_Loop
 8001458:	e7fe      	b.n	8001458 <ADC_COMP_IRQHandler>
	...

0800145c <__libc_init_array>:
 800145c:	b570      	push	{r4, r5, r6, lr}
 800145e:	2600      	movs	r6, #0
 8001460:	4c0c      	ldr	r4, [pc, #48]	@ (8001494 <__libc_init_array+0x38>)
 8001462:	4d0d      	ldr	r5, [pc, #52]	@ (8001498 <__libc_init_array+0x3c>)
 8001464:	1b64      	subs	r4, r4, r5
 8001466:	10a4      	asrs	r4, r4, #2
 8001468:	42a6      	cmp	r6, r4
 800146a:	d109      	bne.n	8001480 <__libc_init_array+0x24>
 800146c:	2600      	movs	r6, #0
 800146e:	f000 f819 	bl	80014a4 <_init>
 8001472:	4c0a      	ldr	r4, [pc, #40]	@ (800149c <__libc_init_array+0x40>)
 8001474:	4d0a      	ldr	r5, [pc, #40]	@ (80014a0 <__libc_init_array+0x44>)
 8001476:	1b64      	subs	r4, r4, r5
 8001478:	10a4      	asrs	r4, r4, #2
 800147a:	42a6      	cmp	r6, r4
 800147c:	d105      	bne.n	800148a <__libc_init_array+0x2e>
 800147e:	bd70      	pop	{r4, r5, r6, pc}
 8001480:	00b3      	lsls	r3, r6, #2
 8001482:	58eb      	ldr	r3, [r5, r3]
 8001484:	4798      	blx	r3
 8001486:	3601      	adds	r6, #1
 8001488:	e7ee      	b.n	8001468 <__libc_init_array+0xc>
 800148a:	00b3      	lsls	r3, r6, #2
 800148c:	58eb      	ldr	r3, [r5, r3]
 800148e:	4798      	blx	r3
 8001490:	3601      	adds	r6, #1
 8001492:	e7f2      	b.n	800147a <__libc_init_array+0x1e>
 8001494:	080016fc 	.word	0x080016fc
 8001498:	080016fc 	.word	0x080016fc
 800149c:	08001700 	.word	0x08001700
 80014a0:	080016fc 	.word	0x080016fc

080014a4 <_init>:
 80014a4:	b5f8      	push	{r3, r4, r5, r6, r7, lr}
 80014a6:	46c0      	nop			@ (mov r8, r8)
 80014a8:	bcf8      	pop	{r3, r4, r5, r6, r7}
 80014aa:	bc08      	pop	{r3}
 80014ac:	469e      	mov	lr, r3
 80014ae:	4770      	bx	lr

080014b0 <_fini>:
 80014b0:	b5f8      	push	{r3, r4, r5, r6, r7, lr}
 80014b2:	46c0      	nop			@ (mov r8, r8)
 80014b4:	bcf8      	pop	{r3, r4, r5, r6, r7}
 80014b6:	bc08      	pop	{r3}
 80014b8:	469e      	mov	lr, r3
 80014ba:	4770      	bx	lr
